ARM GAS  C:\Users\run1009\AppData\Local\Temp\ccpnfeqV.s 			page 1


   1              		.syntax unified
   2              		.cpu cortex-m0
   3              		.fpu softvfp
   4              		.eabi_attribute 20, 1
   5              		.eabi_attribute 21, 1
   6              		.eabi_attribute 23, 3
   7              		.eabi_attribute 24, 1
   8              		.eabi_attribute 25, 1
   9              		.eabi_attribute 26, 1
  10              		.eabi_attribute 30, 6
  11              		.eabi_attribute 34, 0
  12              		.eabi_attribute 18, 4
  13              		.thumb
  14              		.syntax unified
  15              		.file	"BLE_Central_Observer.c"
  16              		.text
  17              	.Ltext0:
  18              		.cfi_sections	.debug_frame
  19              		.comm	devIndex,1,1
  20              		.comm	Periph_Selected,1,1
  21              		.comm	connHandle,2,4
  22              		.comm	apiResult,2,2
  23              		.comm	connectPeriphDevice,21,4
  24              		.global	check
  25              		.bss
  26              		.align	2
  27              		.type	check, %object
  28              		.size	check, 4
  29              	check:
  30 0000 00000000 		.space	4
  31              		.global	bt_addr
  32              		.data
  33              		.align	2
  34              		.type	bt_addr, %object
  35              		.size	bt_addr, 6
  36              	bt_addr:
  37 0000 04       		.byte	4
  38 0001 27       		.byte	39
  39 0002 A8       		.byte	-88
  40 0003 1B       		.byte	27
  41 0004 00       		.byte	0
  42 0005 C4       		.byte	-60
  43              		.section	.rodata
  44              		.align	2
  45              	.LC5:
  46 0000 0A00     		.ascii	"\012\000"
  47 0002 0000     		.align	2
  48              	.LC7:
  49 0004 466F756E 		.ascii	"Found Device No: %d\015\012\000"
  49      64204465 
  49      76696365 
  49      204E6F3A 
  49      2025640D 
  50 001a 0000     		.align	2
  51              	.LC9:
  52 001c 52535349 		.ascii	"RSSI: %d \015\012\000"
  52      3A202564 
ARM GAS  C:\Users\run1009\AppData\Local\Temp\ccpnfeqV.s 			page 2


  52      200D0A00 
  53              		.align	2
  54              	.LC11:
  55 0028 70656572 		.ascii	"peerBdAddr: %x%x%x%x%x%x \015\012\000"
  55      42644164 
  55      64723A20 
  55      25782578 
  55      25782578 
  56              		.align	2
  57              	.LC13:
  58 0044 50656572 		.ascii	"Peer device adveritsing data Length: %d \015\012\000"
  58      20646576 
  58      69636520 
  58      61647665 
  58      72697473 
  59 006f 00       		.align	2
  60              	.LC15:
  61 0070 5363616E 		.ascii	"Scan Response Data:  \015\000"
  61      20526573 
  61      706F6E73 
  61      65204461 
  61      74613A20 
  62 0087 00       		.align	2
  63              	.LC17:
  64 0088 257800   		.ascii	"%x\000"
  65 008b 00       		.align	2
  66              	.LC19:
  67 008c 0D00     		.ascii	"\015\000"
  68              		.section	.text.Get_Adv_Scan_Packets,"ax",%progbits
  69              		.align	2
  70              		.global	Get_Adv_Scan_Packets
  71              		.code	16
  72              		.thumb_func
  73              		.type	Get_Adv_Scan_Packets, %function
  74              	Get_Adv_Scan_Packets:
  75              	.LFB38:
  76              		.file 1 "BLE_Central_Observer.c"
   1:BLE_Central_Observer.c **** /******************************************************************************
   2:BLE_Central_Observer.c **** * Project Name		: BLE_Central_Observer
   3:BLE_Central_Observer.c **** * File Name			: BLE_Central_Observer.c
   4:BLE_Central_Observer.c **** * Version 			: 1.0
   5:BLE_Central_Observer.c **** * Device Used		: CY8C4247LQI-BL483
   6:BLE_Central_Observer.c **** * Software Used		: PSoC Creator 3.1 CP1
   7:BLE_Central_Observer.c **** * Compiler    		: ARM GCC 4.8.4, ARM RVDS Generic, ARM MDK Generic
   8:BLE_Central_Observer.c **** * Owner				: MADY
   9:BLE_Central_Observer.c **** ********************************************************************************/
  10:BLE_Central_Observer.c **** /******************************************************************************
  11:BLE_Central_Observer.c **** *In this file the functions that handle the BLE Stack events and other operations
  12:BLE_Central_Observer.c **** *like Scanning, Connection, Disconnection, Displaying of advertisement packets
  13:BLE_Central_Observer.c **** *are present. 
  14:BLE_Central_Observer.c **** ******************************************************************************/
  15:BLE_Central_Observer.c **** 
  16:BLE_Central_Observer.c **** #include "BLE_Central_Observer.h"
  17:BLE_Central_Observer.c **** #include "main.h"
  18:BLE_Central_Observer.c **** 
  19:BLE_Central_Observer.c **** uint8 devIndex;
  20:BLE_Central_Observer.c **** uint8 Periph_Selected;
ARM GAS  C:\Users\run1009\AppData\Local\Temp\ccpnfeqV.s 			page 3


  21:BLE_Central_Observer.c ****  
  22:BLE_Central_Observer.c **** /* 'connHandle' is a varibale of type 'CYBLE_CONN_HANDLE_T' (defined in 
  23:BLE_Central_Observer.c **** * BLE_StackGatt.h) and is used to store the connection handle parameters after
  24:BLE_Central_Observer.c **** * connecting with the peripheral device. */
  25:BLE_Central_Observer.c **** CYBLE_CONN_HANDLE_T			connHandle;
  26:BLE_Central_Observer.c **** 
  27:BLE_Central_Observer.c **** 	/* 'apiResult' is a varibale of type 'CYBLE_API_RESULT_T' (defined in 
  28:BLE_Central_Observer.c **** * BLE_StackTypes.h) and is used to store the return value from BLE APIs. */
  29:BLE_Central_Observer.c **** 	
  30:BLE_Central_Observer.c **** CYBLE_API_RESULT_T 		    apiResult;
  31:BLE_Central_Observer.c **** 	
  32:BLE_Central_Observer.c **** /* 'connectPeriphDevice' is a varibale of type 'CYBLE_GAP_BD_ADDR_T' (defined in 
  33:BLE_Central_Observer.c **** * BLE_StackGap.h) and is used to store address of the connected device. */
  34:BLE_Central_Observer.c **** CYBLE_GAP_BD_ADDR_T     connectPeriphDevice[3];
  35:BLE_Central_Observer.c **** 
  36:BLE_Central_Observer.c **** 
  37:BLE_Central_Observer.c **** int check = 0;
  38:BLE_Central_Observer.c **** uint8 bt_addr[6] = {0x04,0x27,0xa8,0x1b,0x00,0xc4};
  39:BLE_Central_Observer.c **** /*******************************************************************************
  40:BLE_Central_Observer.c **** * Function Name: Get_Adv_Scan_Packets
  41:BLE_Central_Observer.c **** ********************************************************************************
  42:BLE_Central_Observer.c **** *
  43:BLE_Central_Observer.c **** * Summary:
  44:BLE_Central_Observer.c **** * This function gets information from Advertisement and Scan Response packets
  45:BLE_Central_Observer.c **** *
  46:BLE_Central_Observer.c **** * Parameters:  
  47:BLE_Central_Observer.c **** * scanReport - Advertisement report received by the Central
  48:BLE_Central_Observer.c **** *
  49:BLE_Central_Observer.c **** * Return: 
  50:BLE_Central_Observer.c **** *  None
  51:BLE_Central_Observer.c **** *
  52:BLE_Central_Observer.c **** *******************************************************************************/
  53:BLE_Central_Observer.c **** 
  54:BLE_Central_Observer.c **** void Get_Adv_Scan_Packets(CYBLE_GAPC_ADV_REPORT_T* scanReport)
  55:BLE_Central_Observer.c **** {
  77              		.loc 1 55 0
  78              		.cfi_startproc
  79              		@ args = 0, pretend = 0, frame = 16
  80              		@ frame_needed = 1, uses_anonymous_args = 0
  81 0000 F0B5     		push	{r4, r5, r6, r7, lr}
  82              		.cfi_def_cfa_offset 20
  83              		.cfi_offset 4, -20
  84              		.cfi_offset 5, -16
  85              		.cfi_offset 6, -12
  86              		.cfi_offset 7, -8
  87              		.cfi_offset 14, -4
  88 0002 89B0     		sub	sp, sp, #36
  89              		.cfi_def_cfa_offset 56
  90 0004 04AF     		add	r7, sp, #16
  91              		.cfi_def_cfa 7, 40
  92 0006 7860     		str	r0, [r7, #4]
  56:BLE_Central_Observer.c ****  uint8 RepIndex; //Index for Bytes in Scan Response Packet
  57:BLE_Central_Observer.c ****     if(devIndex <3)
  93              		.loc 1 57 0
  94 0008 7C4B     		ldr	r3, .L13
  95 000a 1B78     		ldrb	r3, [r3]
  96 000c 022B     		cmp	r3, #2
ARM GAS  C:\Users\run1009\AppData\Local\Temp\ccpnfeqV.s 			page 4


  97 000e 00D9     		bls	.LCB19
  98 0010 ECE0     		b	.L2	@long jump
  99              	.LCB19:
 100              	.LBB2:
  58:BLE_Central_Observer.c ****     {
  59:BLE_Central_Observer.c ****         //select the adv ble from target ble address 
  60:BLE_Central_Observer.c ****         uint8 scan_addr[6]; 
  61:BLE_Central_Observer.c **** 
  62:BLE_Central_Observer.c ****         if ((scanReport->eventType == CYBLE_GAPC_CONN_UNDIRECTED_ADV)||
 101              		.loc 1 62 0
 102 0012 7B68     		ldr	r3, [r7, #4]
 103 0014 1B78     		ldrb	r3, [r3]
 104 0016 002B     		cmp	r3, #0
 105 0018 0BD0     		beq	.L3
  63:BLE_Central_Observer.c ****                 (scanReport->eventType == CYBLE_GAPC_CONN_DIRECTED_ADV)||
 106              		.loc 1 63 0 discriminator 1
 107 001a 7B68     		ldr	r3, [r7, #4]
 108 001c 1B78     		ldrb	r3, [r3]
  62:BLE_Central_Observer.c ****                 (scanReport->eventType == CYBLE_GAPC_CONN_DIRECTED_ADV)||
 109              		.loc 1 62 0 discriminator 1
 110 001e 012B     		cmp	r3, #1
 111 0020 07D0     		beq	.L3
  64:BLE_Central_Observer.c ****                 (scanReport->eventType == 	CYBLE_GAPC_SCAN_UNDIRECTED_ADV)||
 112              		.loc 1 64 0
 113 0022 7B68     		ldr	r3, [r7, #4]
 114 0024 1B78     		ldrb	r3, [r3]
  63:BLE_Central_Observer.c ****                 (scanReport->eventType == CYBLE_GAPC_CONN_DIRECTED_ADV)||
 115              		.loc 1 63 0
 116 0026 022B     		cmp	r3, #2
 117 0028 03D0     		beq	.L3
  65:BLE_Central_Observer.c ****                 (scanReport->eventType == 	CYBLE_GAPC_NON_CONN_UNDIRECTED_ADV))
 118              		.loc 1 65 0
 119 002a 7B68     		ldr	r3, [r7, #4]
 120 002c 1B78     		ldrb	r3, [r3]
  64:BLE_Central_Observer.c ****                 (scanReport->eventType == 	CYBLE_GAPC_SCAN_UNDIRECTED_ADV)||
 121              		.loc 1 64 0
 122 002e 032B     		cmp	r3, #3
 123 0030 2FD1     		bne	.L4
 124              	.L3:
 125              	.LBB3:
  66:BLE_Central_Observer.c ****             {
  67:BLE_Central_Observer.c ****      
  68:BLE_Central_Observer.c ****         for(uint8 i=0u;i<6u;i++){
 126              		.loc 1 68 0
 127 0032 0E23     		movs	r3, #14
 128 0034 FB18     		adds	r3, r7, r3
 129 0036 0022     		movs	r2, #0
 130 0038 1A70     		strb	r2, [r3]
 131 003a 25E0     		b	.L5
 132              	.L7:
  69:BLE_Central_Observer.c ****             scan_addr[i] = scanReport->peerBdAddr[i];
 133              		.loc 1 69 0
 134 003c 0E23     		movs	r3, #14
 135 003e FB18     		adds	r3, r7, r3
 136 0040 1A78     		ldrb	r2, [r3]
 137 0042 7B68     		ldr	r3, [r7, #4]
 138 0044 5968     		ldr	r1, [r3, #4]
ARM GAS  C:\Users\run1009\AppData\Local\Temp\ccpnfeqV.s 			page 5


 139 0046 0E23     		movs	r3, #14
 140 0048 FB18     		adds	r3, r7, r3
 141 004a 1B78     		ldrb	r3, [r3]
 142 004c CB18     		adds	r3, r1, r3
 143 004e 1978     		ldrb	r1, [r3]
 144 0050 0823     		movs	r3, #8
 145 0052 FB18     		adds	r3, r7, r3
 146 0054 9954     		strb	r1, [r3, r2]
  70:BLE_Central_Observer.c ****             
  71:BLE_Central_Observer.c ****             if(scan_addr[i] == bt_addr[i]){
 147              		.loc 1 71 0
 148 0056 0E23     		movs	r3, #14
 149 0058 FB18     		adds	r3, r7, r3
 150 005a 1B78     		ldrb	r3, [r3]
 151 005c 0822     		movs	r2, #8
 152 005e BA18     		adds	r2, r7, r2
 153 0060 D25C     		ldrb	r2, [r2, r3]
 154 0062 0E23     		movs	r3, #14
 155 0064 FB18     		adds	r3, r7, r3
 156 0066 1B78     		ldrb	r3, [r3]
 157 0068 6549     		ldr	r1, .L13+4
 158 006a CB5C     		ldrb	r3, [r1, r3]
 159 006c 9A42     		cmp	r2, r3
 160 006e 04D1     		bne	.L6
  72:BLE_Central_Observer.c ****                 check++;   
 161              		.loc 1 72 0
 162 0070 644B     		ldr	r3, .L13+8
 163 0072 1B68     		ldr	r3, [r3]
 164 0074 5A1C     		adds	r2, r3, #1
 165 0076 634B     		ldr	r3, .L13+8
 166 0078 1A60     		str	r2, [r3]
 167              	.L6:
  68:BLE_Central_Observer.c ****             scan_addr[i] = scanReport->peerBdAddr[i];
 168              		.loc 1 68 0 discriminator 2
 169 007a 0E23     		movs	r3, #14
 170 007c FB18     		adds	r3, r7, r3
 171 007e 1A78     		ldrb	r2, [r3]
 172 0080 0E23     		movs	r3, #14
 173 0082 FB18     		adds	r3, r7, r3
 174 0084 0132     		adds	r2, r2, #1
 175 0086 1A70     		strb	r2, [r3]
 176              	.L5:
  68:BLE_Central_Observer.c ****             scan_addr[i] = scanReport->peerBdAddr[i];
 177              		.loc 1 68 0 is_stmt 0 discriminator 1
 178 0088 0E23     		movs	r3, #14
 179 008a FB18     		adds	r3, r7, r3
 180 008c 1B78     		ldrb	r3, [r3]
 181 008e 052B     		cmp	r3, #5
 182 0090 D4D9     		bls	.L7
 183              	.L4:
 184              	.LBE3:
  73:BLE_Central_Observer.c ****             }
  74:BLE_Central_Observer.c ****         }
  75:BLE_Central_Observer.c ****       
  76:BLE_Central_Observer.c ****        }
  77:BLE_Central_Observer.c ****             
  78:BLE_Central_Observer.c ****         //if scanned ble address matched to target address
ARM GAS  C:\Users\run1009\AppData\Local\Temp\ccpnfeqV.s 			page 6


  79:BLE_Central_Observer.c ****         if (check==6)
 185              		.loc 1 79 0 is_stmt 1
 186 0092 5C4B     		ldr	r3, .L13+8
 187 0094 1B68     		ldr	r3, [r3]
 188 0096 062B     		cmp	r3, #6
 189 0098 00D0     		beq	.LCB99
 190 009a A7E0     		b	.L2	@long jump
 191              	.LCB99:
  80:BLE_Central_Observer.c ****         
  81:BLE_Central_Observer.c ****         {
  82:BLE_Central_Observer.c ****              IsDetected = 1;
 192              		.loc 1 82 0
 193 009c 5A4B     		ldr	r3, .L13+12
 194 009e 0122     		movs	r2, #1
 195 00a0 1A70     		strb	r2, [r3]
  83:BLE_Central_Observer.c ****             // Receiving Advertisement Packet
  84:BLE_Central_Observer.c ****             if ((scanReport->eventType == CYBLE_GAPC_CONN_UNDIRECTED_ADV)||
 196              		.loc 1 84 0
 197 00a2 7B68     		ldr	r3, [r7, #4]
 198 00a4 1B78     		ldrb	r3, [r3]
 199 00a6 002B     		cmp	r3, #0
 200 00a8 0BD0     		beq	.L9
  85:BLE_Central_Observer.c ****                 (scanReport->eventType == CYBLE_GAPC_CONN_DIRECTED_ADV)||
 201              		.loc 1 85 0 discriminator 1
 202 00aa 7B68     		ldr	r3, [r7, #4]
 203 00ac 1B78     		ldrb	r3, [r3]
  84:BLE_Central_Observer.c ****                 (scanReport->eventType == CYBLE_GAPC_CONN_DIRECTED_ADV)||
 204              		.loc 1 84 0 discriminator 1
 205 00ae 012B     		cmp	r3, #1
 206 00b0 07D0     		beq	.L9
  86:BLE_Central_Observer.c ****                 (scanReport->eventType == 	CYBLE_GAPC_SCAN_UNDIRECTED_ADV)||
 207              		.loc 1 86 0
 208 00b2 7B68     		ldr	r3, [r7, #4]
 209 00b4 1B78     		ldrb	r3, [r3]
  85:BLE_Central_Observer.c ****                 (scanReport->eventType == CYBLE_GAPC_CONN_DIRECTED_ADV)||
 210              		.loc 1 85 0
 211 00b6 022B     		cmp	r3, #2
 212 00b8 03D0     		beq	.L9
  87:BLE_Central_Observer.c ****                 (scanReport->eventType == 	CYBLE_GAPC_NON_CONN_UNDIRECTED_ADV))
 213              		.loc 1 87 0
 214 00ba 7B68     		ldr	r3, [r7, #4]
 215 00bc 1B78     		ldrb	r3, [r3]
  86:BLE_Central_Observer.c ****                 (scanReport->eventType == 	CYBLE_GAPC_SCAN_UNDIRECTED_ADV)||
 216              		.loc 1 86 0
 217 00be 032B     		cmp	r3, #3
 218 00c0 61D1     		bne	.L10
 219              	.L9:
  88:BLE_Central_Observer.c ****             {
  89:BLE_Central_Observer.c ****                 memcpy(connectPeriphDevice[devIndex].bdAddr, scanReport->peerBdAddr,
 220              		.loc 1 89 0
 221 00c2 4E4B     		ldr	r3, .L13
 222 00c4 1B78     		ldrb	r3, [r3]
 223 00c6 1A00     		movs	r2, r3
 224 00c8 1300     		movs	r3, r2
 225 00ca DB00     		lsls	r3, r3, #3
 226 00cc 9B1A     		subs	r3, r3, r2
 227 00ce 4F4A     		ldr	r2, .L13+16
ARM GAS  C:\Users\run1009\AppData\Local\Temp\ccpnfeqV.s 			page 7


 228 00d0 9818     		adds	r0, r3, r2
 229 00d2 7B68     		ldr	r3, [r7, #4]
 230 00d4 5B68     		ldr	r3, [r3, #4]
 231 00d6 0622     		movs	r2, #6
 232 00d8 1900     		movs	r1, r3
 233 00da FFF7FEFF 		bl	memcpy
  90:BLE_Central_Observer.c ****                 sizeof(connectPeriphDevice[devIndex].bdAddr));
  91:BLE_Central_Observer.c ****                 connectPeriphDevice[devIndex].type = 1;
 234              		.loc 1 91 0
 235 00de 474B     		ldr	r3, .L13
 236 00e0 1B78     		ldrb	r3, [r3]
 237 00e2 1900     		movs	r1, r3
 238 00e4 494A     		ldr	r2, .L13+16
 239 00e6 0B00     		movs	r3, r1
 240 00e8 DB00     		lsls	r3, r3, #3
 241 00ea 5B1A     		subs	r3, r3, r1
 242 00ec D318     		adds	r3, r2, r3
 243 00ee 0633     		adds	r3, r3, #6
 244 00f0 0122     		movs	r2, #1
 245 00f2 1A70     		strb	r2, [r3]
  92:BLE_Central_Observer.c ****                 
  93:BLE_Central_Observer.c ****                 printf ("\n\n");  
 246              		.loc 1 93 0
 247 00f4 464B     		ldr	r3, .L13+20
 248 00f6 1800     		movs	r0, r3
 249 00f8 FFF7FEFF 		bl	puts
  94:BLE_Central_Observer.c ****                 printf ("Found Device No: %d\r\n",devIndex);
 250              		.loc 1 94 0
 251 00fc 3F4B     		ldr	r3, .L13
 252 00fe 1B78     		ldrb	r3, [r3]
 253 0100 1A00     		movs	r2, r3
 254 0102 444B     		ldr	r3, .L13+24
 255 0104 1100     		movs	r1, r2
 256 0106 1800     		movs	r0, r3
 257 0108 FFF7FEFF 		bl	printf
  95:BLE_Central_Observer.c ****                 //printf ("Found Device: \r\n");
  96:BLE_Central_Observer.c ****         		
  97:BLE_Central_Observer.c ****         	    printf("RSSI: %d \r\n",scanReport->rssi);
 258              		.loc 1 97 0
 259 010c 7B68     		ldr	r3, [r7, #4]
 260 010e 1B7C     		ldrb	r3, [r3, #16]
 261 0110 5BB2     		sxtb	r3, r3
 262 0112 1A00     		movs	r2, r3
 263 0114 404B     		ldr	r3, .L13+28
 264 0116 1100     		movs	r1, r2
 265 0118 1800     		movs	r0, r3
 266 011a FFF7FEFF 		bl	printf
  98:BLE_Central_Observer.c ****                 printf("peerBdAddr: %x%x%x%x%x%x \r\n",
  99:BLE_Central_Observer.c ****                 scanReport->peerBdAddr[5u], 
 267              		.loc 1 99 0
 268 011e 7B68     		ldr	r3, [r7, #4]
 269 0120 5B68     		ldr	r3, [r3, #4]
 270 0122 0533     		adds	r3, r3, #5
 271 0124 1B78     		ldrb	r3, [r3]
  98:BLE_Central_Observer.c ****                 printf("peerBdAddr: %x%x%x%x%x%x \r\n",
 272              		.loc 1 98 0
 273 0126 1C00     		movs	r4, r3
ARM GAS  C:\Users\run1009\AppData\Local\Temp\ccpnfeqV.s 			page 8


 100:BLE_Central_Observer.c ****                 scanReport->peerBdAddr[4u], 
 274              		.loc 1 100 0
 275 0128 7B68     		ldr	r3, [r7, #4]
 276 012a 5B68     		ldr	r3, [r3, #4]
 277 012c 0433     		adds	r3, r3, #4
 278 012e 1B78     		ldrb	r3, [r3]
  98:BLE_Central_Observer.c ****                 printf("peerBdAddr: %x%x%x%x%x%x \r\n",
 279              		.loc 1 98 0
 280 0130 1D00     		movs	r5, r3
 101:BLE_Central_Observer.c ****                 scanReport->peerBdAddr[3u], 
 281              		.loc 1 101 0
 282 0132 7B68     		ldr	r3, [r7, #4]
 283 0134 5B68     		ldr	r3, [r3, #4]
 284 0136 0333     		adds	r3, r3, #3
 285 0138 1B78     		ldrb	r3, [r3]
  98:BLE_Central_Observer.c ****                 printf("peerBdAddr: %x%x%x%x%x%x \r\n",
 286              		.loc 1 98 0
 287 013a 1E00     		movs	r6, r3
 102:BLE_Central_Observer.c ****                 scanReport->peerBdAddr[2u], 
 288              		.loc 1 102 0
 289 013c 7B68     		ldr	r3, [r7, #4]
 290 013e 5B68     		ldr	r3, [r3, #4]
 291 0140 0233     		adds	r3, r3, #2
 292 0142 1B78     		ldrb	r3, [r3]
  98:BLE_Central_Observer.c ****                 scanReport->peerBdAddr[5u], 
 293              		.loc 1 98 0
 294 0144 1A00     		movs	r2, r3
 103:BLE_Central_Observer.c ****                 scanReport->peerBdAddr[1u], 
 295              		.loc 1 103 0
 296 0146 7B68     		ldr	r3, [r7, #4]
 297 0148 5B68     		ldr	r3, [r3, #4]
 298 014a 0133     		adds	r3, r3, #1
 299 014c 1B78     		ldrb	r3, [r3]
  98:BLE_Central_Observer.c ****                 scanReport->peerBdAddr[5u], 
 300              		.loc 1 98 0
 301 014e 1900     		movs	r1, r3
 104:BLE_Central_Observer.c ****                 scanReport->peerBdAddr[0u]);
 302              		.loc 1 104 0
 303 0150 7B68     		ldr	r3, [r7, #4]
 304 0152 5B68     		ldr	r3, [r3, #4]
 305 0154 1B78     		ldrb	r3, [r3]
  98:BLE_Central_Observer.c ****                 scanReport->peerBdAddr[5u], 
 306              		.loc 1 98 0
 307 0156 3148     		ldr	r0, .L13+32
 308 0158 0293     		str	r3, [sp, #8]
 309 015a 0191     		str	r1, [sp, #4]
 310 015c 0092     		str	r2, [sp]
 311 015e 3300     		movs	r3, r6
 312 0160 2A00     		movs	r2, r5
 313 0162 2100     		movs	r1, r4
 314 0164 FFF7FEFF 		bl	printf
 105:BLE_Central_Observer.c **** 
 106:BLE_Central_Observer.c ****                 printf("Peer device adveritsing data Length: %d \r\n", scanReport->dataLen);
 315              		.loc 1 106 0
 316 0168 7B68     		ldr	r3, [r7, #4]
 317 016a 1B7A     		ldrb	r3, [r3, #8]
 318 016c 1A00     		movs	r2, r3
ARM GAS  C:\Users\run1009\AppData\Local\Temp\ccpnfeqV.s 			page 9


 319 016e 2C4B     		ldr	r3, .L13+36
 320 0170 1100     		movs	r1, r2
 321 0172 1800     		movs	r0, r3
 322 0174 FFF7FEFF 		bl	printf
 107:BLE_Central_Observer.c ****                 devIndex++;
 323              		.loc 1 107 0
 324 0178 204B     		ldr	r3, .L13
 325 017a 1B78     		ldrb	r3, [r3]
 326 017c 0133     		adds	r3, r3, #1
 327 017e DAB2     		uxtb	r2, r3
 328 0180 1E4B     		ldr	r3, .L13
 329 0182 1A70     		strb	r2, [r3]
 330 0184 32E0     		b	.L2
 331              	.L10:
 108:BLE_Central_Observer.c ****             }
 109:BLE_Central_Observer.c ****             //receiving Scan response Packet
 110:BLE_Central_Observer.c ****             else if (scanReport->eventType == CYBLE_GAPC_SCAN_RSP)
 332              		.loc 1 110 0
 333 0186 7B68     		ldr	r3, [r7, #4]
 334 0188 1B78     		ldrb	r3, [r3]
 335 018a 042B     		cmp	r3, #4
 336 018c 2ED1     		bne	.L2
 111:BLE_Central_Observer.c ****             {
 112:BLE_Central_Observer.c ****               printf ("Scan Response Data:  \r\n");
 337              		.loc 1 112 0
 338 018e 254B     		ldr	r3, .L13+40
 339 0190 1800     		movs	r0, r3
 340 0192 FFF7FEFF 		bl	puts
 113:BLE_Central_Observer.c ****               if(scanReport->dataLen!=0)
 341              		.loc 1 113 0
 342 0196 7B68     		ldr	r3, [r7, #4]
 343 0198 1B7A     		ldrb	r3, [r3, #8]
 344 019a 002B     		cmp	r3, #0
 345 019c 26D0     		beq	.L2
 114:BLE_Central_Observer.c ****               {
 115:BLE_Central_Observer.c ****                 for(RepIndex = 0u; RepIndex < scanReport->dataLen; RepIndex++)
 346              		.loc 1 115 0
 347 019e 0F23     		movs	r3, #15
 348 01a0 FB18     		adds	r3, r7, r3
 349 01a2 0022     		movs	r2, #0
 350 01a4 1A70     		strb	r2, [r3]
 351 01a6 13E0     		b	.L11
 352              	.L12:
 116:BLE_Central_Observer.c ****                 {
 117:BLE_Central_Observer.c ****                   printf("%x", scanReport->data[RepIndex]);
 353              		.loc 1 117 0 discriminator 3
 354 01a8 7B68     		ldr	r3, [r7, #4]
 355 01aa DA68     		ldr	r2, [r3, #12]
 356 01ac 0F23     		movs	r3, #15
 357 01ae FB18     		adds	r3, r7, r3
 358 01b0 1B78     		ldrb	r3, [r3]
 359 01b2 D318     		adds	r3, r2, r3
 360 01b4 1B78     		ldrb	r3, [r3]
 361 01b6 1A00     		movs	r2, r3
 362 01b8 1B4B     		ldr	r3, .L13+44
 363 01ba 1100     		movs	r1, r2
 364 01bc 1800     		movs	r0, r3
ARM GAS  C:\Users\run1009\AppData\Local\Temp\ccpnfeqV.s 			page 10


 365 01be FFF7FEFF 		bl	printf
 115:BLE_Central_Observer.c ****                 {
 366              		.loc 1 115 0 discriminator 3
 367 01c2 0F23     		movs	r3, #15
 368 01c4 FB18     		adds	r3, r7, r3
 369 01c6 1A78     		ldrb	r2, [r3]
 370 01c8 0F23     		movs	r3, #15
 371 01ca FB18     		adds	r3, r7, r3
 372 01cc 0132     		adds	r2, r2, #1
 373 01ce 1A70     		strb	r2, [r3]
 374              	.L11:
 115:BLE_Central_Observer.c ****                 {
 375              		.loc 1 115 0 is_stmt 0 discriminator 1
 376 01d0 7B68     		ldr	r3, [r7, #4]
 377 01d2 1B7A     		ldrb	r3, [r3, #8]
 378 01d4 0F22     		movs	r2, #15
 379 01d6 BA18     		adds	r2, r7, r2
 380 01d8 1278     		ldrb	r2, [r2]
 381 01da 9A42     		cmp	r2, r3
 382 01dc E4D3     		bcc	.L12
 118:BLE_Central_Observer.c ****                 }
 119:BLE_Central_Observer.c ****                 printf("\r\n");
 383              		.loc 1 119 0 is_stmt 1
 384 01de 134B     		ldr	r3, .L13+48
 385 01e0 1800     		movs	r0, r3
 386 01e2 FFF7FEFF 		bl	puts
 120:BLE_Central_Observer.c ****                 printf ("\n");
 387              		.loc 1 120 0
 388 01e6 0A20     		movs	r0, #10
 389 01e8 FFF7FEFF 		bl	putchar
 390              	.L2:
 391              	.LBE2:
 121:BLE_Central_Observer.c ****               }
 122:BLE_Central_Observer.c ****             }
 123:BLE_Central_Observer.c ****         }
 124:BLE_Central_Observer.c ****         /*
 125:BLE_Central_Observer.c ****         else
 126:BLE_Central_Observer.c ****         {
 127:BLE_Central_Observer.c ****            // printf ("Device Counts Exceeds 10 \r\n");
 128:BLE_Central_Observer.c ****            // devIndex++;
 129:BLE_Central_Observer.c ****         }
 130:BLE_Central_Observer.c ****         */
 131:BLE_Central_Observer.c ****     }
 132:BLE_Central_Observer.c **** 		check = 0;
 392              		.loc 1 132 0
 393 01ec 054B     		ldr	r3, .L13+8
 394 01ee 0022     		movs	r2, #0
 395 01f0 1A60     		str	r2, [r3]
 133:BLE_Central_Observer.c **** }
 396              		.loc 1 133 0
 397 01f2 C046     		nop
 398 01f4 BD46     		mov	sp, r7
 399 01f6 05B0     		add	sp, sp, #20
 400              		@ sp needed
 401 01f8 F0BD     		pop	{r4, r5, r6, r7, pc}
 402              	.L14:
 403 01fa C046     		.align	2
ARM GAS  C:\Users\run1009\AppData\Local\Temp\ccpnfeqV.s 			page 11


 404              	.L13:
 405 01fc 00000000 		.word	devIndex
 406 0200 00000000 		.word	bt_addr
 407 0204 00000000 		.word	check
 408 0208 00000000 		.word	IsDetected
 409 020c 00000000 		.word	connectPeriphDevice
 410 0210 00000000 		.word	.LC5
 411 0214 04000000 		.word	.LC7
 412 0218 1C000000 		.word	.LC9
 413 021c 28000000 		.word	.LC11
 414 0220 44000000 		.word	.LC13
 415 0224 70000000 		.word	.LC15
 416 0228 88000000 		.word	.LC17
 417 022c 8C000000 		.word	.LC19
 418              		.cfi_endproc
 419              	.LFE38:
 420              		.size	Get_Adv_Scan_Packets, .-Get_Adv_Scan_Packets
 421              		.section	.rodata
 422 008e 0000     		.align	2
 423              	.LC21:
 424 0090 424C4520 		.ascii	"BLE ON:Started to Scan\015\000"
 424      4F4E3A53 
 424      74617274 
 424      65642074 
 424      6F205363 
 425              		.align	2
 426              	.LC23:
 427 00a8 54494D45 		.ascii	"TIME OUT\015\000"
 427      204F5554 
 427      0D00
 428 00b2 0000     		.align	2
 429              	.LC28:
 430 00b4 50657269 		.ascii	"Peripheral connected. Press 'D' for disconnection \015"
 430      70686572 
 430      616C2063 
 430      6F6E6E65 
 430      63746564 
 431 00e7 00       		.ascii	"\000"
 432              		.align	2
 433              	.LC30:
 434 00e8 53746172 		.ascii	"Start Scanning Failed \015\000"
 434      74205363 
 434      616E6E69 
 434      6E672046 
 434      61696C65 
 435              		.align	2
 436              	.LC32:
 437 0100 50657269 		.ascii	"Peripheral Disconnected \015\000"
 437      70686572 
 437      616C2044 
 437      6973636F 
 437      6E6E6563 
 438 011a 0000     		.align	2
 439              	.LC35:
 440 011c 53746172 		.ascii	"Start Scanning Failed\000"
 440      74205363 
 440      616E6E69 
ARM GAS  C:\Users\run1009\AppData\Local\Temp\ccpnfeqV.s 			page 12


 440      6E672046 
 440      61696C65 
 441 0132 0000     		.align	2
 442              	.LC37:
 443 0134 5363616E 		.ascii	"Scanning\015\000"
 443      6E696E67 
 443      0D00
 444              		.section	.text.StackEventHandler,"ax",%progbits
 445              		.align	2
 446              		.global	StackEventHandler
 447              		.code	16
 448              		.thumb_func
 449              		.type	StackEventHandler, %function
 450              	StackEventHandler:
 451              	.LFB39:
 134:BLE_Central_Observer.c **** 
 135:BLE_Central_Observer.c **** /*******************************************************************************
 136:BLE_Central_Observer.c **** * Function Name: StackEventHandler
 137:BLE_Central_Observer.c **** ********************************************************************************
 138:BLE_Central_Observer.c **** * Summary:
 139:BLE_Central_Observer.c **** *        Call back event function to handle various events from BLE stack
 140:BLE_Central_Observer.c **** *
 141:BLE_Central_Observer.c **** * Parameters:
 142:BLE_Central_Observer.c **** *  event:		event returned
 143:BLE_Central_Observer.c **** *  eventParam:	link to value of the event parameter returned
 144:BLE_Central_Observer.c **** *
 145:BLE_Central_Observer.c **** * Return:
 146:BLE_Central_Observer.c **** *  void
 147:BLE_Central_Observer.c **** *
 148:BLE_Central_Observer.c **** *******************************************************************************/
 149:BLE_Central_Observer.c **** void StackEventHandler(uint32 event, void *eventParam)
 150:BLE_Central_Observer.c **** {
 452              		.loc 1 150 0
 453              		.cfi_startproc
 454              		@ args = 0, pretend = 0, frame = 32
 455              		@ frame_needed = 1, uses_anonymous_args = 0
 456 0000 80B5     		push	{r7, lr}
 457              		.cfi_def_cfa_offset 8
 458              		.cfi_offset 7, -8
 459              		.cfi_offset 14, -4
 460 0002 88B0     		sub	sp, sp, #32
 461              		.cfi_def_cfa_offset 40
 462 0004 00AF     		add	r7, sp, #0
 463              		.cfi_def_cfa_register 7
 464 0006 7860     		str	r0, [r7, #4]
 465 0008 3960     		str	r1, [r7]
 151:BLE_Central_Observer.c **** 	CYBLE_GAPC_ADV_REPORT_T advReport;
 152:BLE_Central_Observer.c ****    
 153:BLE_Central_Observer.c **** 	switch(event)
 466              		.loc 1 153 0
 467 000a 7B68     		ldr	r3, [r7, #4]
 468 000c 202B     		cmp	r3, #32
 469 000e 34D0     		beq	.L17
 470 0010 04D8     		bhi	.L18
 471 0012 012B     		cmp	r3, #1
 472 0014 09D0     		beq	.L19
 473 0016 022B     		cmp	r3, #2
ARM GAS  C:\Users\run1009\AppData\Local\Temp\ccpnfeqV.s 			page 13


 474 0018 1BD0     		beq	.L20
 154:BLE_Central_Observer.c **** 	{
 155:BLE_Central_Observer.c **** 		case CYBLE_EVT_STACK_ON:
 156:BLE_Central_Observer.c ****             printf("BLE ON:Started to Scan\r\n");
 157:BLE_Central_Observer.c ****            
 158:BLE_Central_Observer.c **** 	        if(CYBLE_ERROR_OK == CyBle_GapcStartScan(CYBLE_SCANNING_FAST))
 159:BLE_Central_Observer.c **** 	        {
 160:BLE_Central_Observer.c ****               GREEN_LED_ON(); /*scanning*/
 161:BLE_Central_Observer.c **** 	        }
 162:BLE_Central_Observer.c **** 			break;
 163:BLE_Central_Observer.c **** 		
 164:BLE_Central_Observer.c ****         case CYBLE_EVT_TIMEOUT:
 165:BLE_Central_Observer.c ****             printf("TIME OUT\r\n");
 166:BLE_Central_Observer.c ****          if( CYBLE_GAP_SCAN_TO ==*(uint16*) eventParam)
 167:BLE_Central_Observer.c ****             {       
 168:BLE_Central_Observer.c ****                 // Start Scanning again when timeout occurs
 169:BLE_Central_Observer.c ****                 CyBle_GapcStartScan(CYBLE_SCANNING_SLOW);
 170:BLE_Central_Observer.c ****                 GREEN_LED_ON();
 171:BLE_Central_Observer.c ****              }
 172:BLE_Central_Observer.c **** 			
 173:BLE_Central_Observer.c **** 		case CYBLE_EVT_GAPC_SCAN_PROGRESS_RESULT:
 174:BLE_Central_Observer.c ****                 /*Get the information from advertisement and scan response packets*/
 175:BLE_Central_Observer.c ****              Get_Adv_Scan_Packets((CYBLE_GAPC_ADV_REPORT_T *)eventParam);
 176:BLE_Central_Observer.c ****              memcpy(&advReport, eventParam, sizeof(advReport)); 
 177:BLE_Central_Observer.c **** 
 178:BLE_Central_Observer.c **** 		break;
 179:BLE_Central_Observer.c **** 			
 180:BLE_Central_Observer.c ****  		case CYBLE_EVT_GATT_CONNECT_IND:
 181:BLE_Central_Observer.c **** 			/* When the peripheral device is connected, store the connection handle.*/      
 182:BLE_Central_Observer.c ****             IsConnected = 1;
 183:BLE_Central_Observer.c ****             connHandle = *(CYBLE_CONN_HANDLE_T *)eventParam;
 184:BLE_Central_Observer.c ****             PrintHex(*(uint8*)eventParam);
 185:BLE_Central_Observer.c **** 			break;
 186:BLE_Central_Observer.c **** 		
 187:BLE_Central_Observer.c **** 		case CYBLE_EVT_GAP_DEVICE_CONNECTED:
 188:BLE_Central_Observer.c ****              devIndex = 0;
 189:BLE_Central_Observer.c **** 	         printf("Peripheral connected. Press 'D' for disconnection \r\n");
 190:BLE_Central_Observer.c ****              BLUE_LED_ON();
 191:BLE_Central_Observer.c ****              if(CYBLE_ERROR_OK != CyBle_GapcStartScan(CYBLE_SCANNING_FAST))
 192:BLE_Central_Observer.c **** 		      {
 193:BLE_Central_Observer.c ****                printf ("Start Scanning Failed \r\n");
 194:BLE_Central_Observer.c **** 		      }
 195:BLE_Central_Observer.c ****             
 196:BLE_Central_Observer.c ****         break;
 197:BLE_Central_Observer.c **** 			
 198:BLE_Central_Observer.c **** 		case CYBLE_EVT_GAP_DEVICE_DISCONNECTED:
 199:BLE_Central_Observer.c ****             RED_LED_ON();
 200:BLE_Central_Observer.c ****             IsConnected = 0;
 201:BLE_Central_Observer.c ****             printf("Peripheral Disconnected \r\n");
 202:BLE_Central_Observer.c ****             if (!(IsSelected))
 203:BLE_Central_Observer.c ****             {
 204:BLE_Central_Observer.c ****               if(CYBLE_ERROR_OK != CyBle_GapcStartScan(CYBLE_SCANNING_FAST))
 205:BLE_Central_Observer.c ****     	       {
 206:BLE_Central_Observer.c ****                  printf ("Start Scanning Failed");
 207:BLE_Central_Observer.c ****                }
 208:BLE_Central_Observer.c ****                else
 209:BLE_Central_Observer.c ****                {
ARM GAS  C:\Users\run1009\AppData\Local\Temp\ccpnfeqV.s 			page 14


 210:BLE_Central_Observer.c ****                  GREEN_LED_ON();
 211:BLE_Central_Observer.c ****                  printf ("Scanning\r\n");
 212:BLE_Central_Observer.c ****                }
 213:BLE_Central_Observer.c ****             }
 214:BLE_Central_Observer.c ****            break;
 215:BLE_Central_Observer.c **** 
 216:BLE_Central_Observer.c **** 		default:
 217:BLE_Central_Observer.c **** 			break;
 475              		.loc 1 217 0
 476 001a 96E0     		b	.L25
 477              	.L18:
 153:BLE_Central_Observer.c **** 	{
 478              		.loc 1 153 0
 479 001c 282B     		cmp	r3, #40
 480 001e 63D0     		beq	.L21
 481 0020 412B     		cmp	r3, #65
 482 0022 36D0     		beq	.L22
 483 0024 272B     		cmp	r3, #39
 484 0026 45D0     		beq	.L23
 485              		.loc 1 217 0
 486 0028 8FE0     		b	.L25
 487              	.L19:
 156:BLE_Central_Observer.c ****            
 488              		.loc 1 156 0
 489 002a 4A4B     		ldr	r3, .L32
 490 002c 1800     		movs	r0, r3
 491 002e FFF7FEFF 		bl	puts
 158:BLE_Central_Observer.c **** 	        {
 492              		.loc 1 158 0
 493 0032 0020     		movs	r0, #0
 494 0034 FFF7FEFF 		bl	CyBle_GapcStartScan
 495 0038 031E     		subs	r3, r0, #0
 496 003a 00D0     		beq	.LCB348
 497 003c 80E0     		b	.L29	@long jump
 498              	.LCB348:
 160:BLE_Central_Observer.c **** 	        }
 499              		.loc 1 160 0
 500 003e 0120     		movs	r0, #1
 501 0040 FFF7FEFF 		bl	RED_LED_Write
 502 0044 0020     		movs	r0, #0
 503 0046 FFF7FEFF 		bl	GREEN_LED_Write
 504 004a 0120     		movs	r0, #1
 505 004c FFF7FEFF 		bl	BLUE_LED_Write
 162:BLE_Central_Observer.c **** 		
 506              		.loc 1 162 0
 507 0050 76E0     		b	.L29
 508              	.L20:
 165:BLE_Central_Observer.c ****          if( CYBLE_GAP_SCAN_TO ==*(uint16*) eventParam)
 509              		.loc 1 165 0
 510 0052 414B     		ldr	r3, .L32+4
 511 0054 1800     		movs	r0, r3
 512 0056 FFF7FEFF 		bl	puts
 166:BLE_Central_Observer.c ****             {       
 513              		.loc 1 166 0
 514 005a 3B68     		ldr	r3, [r7]
 515 005c 1B88     		ldrh	r3, [r3]
 516 005e 022B     		cmp	r3, #2
ARM GAS  C:\Users\run1009\AppData\Local\Temp\ccpnfeqV.s 			page 15


 517 0060 0BD1     		bne	.L17
 169:BLE_Central_Observer.c ****                 GREEN_LED_ON();
 518              		.loc 1 169 0
 519 0062 0120     		movs	r0, #1
 520 0064 FFF7FEFF 		bl	CyBle_GapcStartScan
 170:BLE_Central_Observer.c ****              }
 521              		.loc 1 170 0
 522 0068 0120     		movs	r0, #1
 523 006a FFF7FEFF 		bl	RED_LED_Write
 524 006e 0020     		movs	r0, #0
 525 0070 FFF7FEFF 		bl	GREEN_LED_Write
 526 0074 0120     		movs	r0, #1
 527 0076 FFF7FEFF 		bl	BLUE_LED_Write
 528              	.L17:
 175:BLE_Central_Observer.c ****              memcpy(&advReport, eventParam, sizeof(advReport)); 
 529              		.loc 1 175 0
 530 007a 3B68     		ldr	r3, [r7]
 531 007c 1800     		movs	r0, r3
 532 007e FFF7FEFF 		bl	Get_Adv_Scan_Packets
 176:BLE_Central_Observer.c **** 
 533              		.loc 1 176 0
 534 0082 3968     		ldr	r1, [r7]
 535 0084 0C23     		movs	r3, #12
 536 0086 FB18     		adds	r3, r7, r3
 537 0088 1422     		movs	r2, #20
 538 008a 1800     		movs	r0, r3
 539 008c FFF7FEFF 		bl	memcpy
 178:BLE_Central_Observer.c **** 			
 540              		.loc 1 178 0
 541 0090 5BE0     		b	.L25
 542              	.L22:
 182:BLE_Central_Observer.c ****             connHandle = *(CYBLE_CONN_HANDLE_T *)eventParam;
 543              		.loc 1 182 0
 544 0092 324B     		ldr	r3, .L32+8
 545 0094 0122     		movs	r2, #1
 546 0096 1A70     		strb	r2, [r3]
 183:BLE_Central_Observer.c ****             PrintHex(*(uint8*)eventParam);
 547              		.loc 1 183 0
 548 0098 314A     		ldr	r2, .L32+12
 549 009a 3B68     		ldr	r3, [r7]
 550 009c 1000     		movs	r0, r2
 551 009e 1900     		movs	r1, r3
 552 00a0 0223     		movs	r3, #2
 553 00a2 1A00     		movs	r2, r3
 554 00a4 FFF7FEFF 		bl	memcpy
 184:BLE_Central_Observer.c **** 			break;
 555              		.loc 1 184 0
 556 00a8 3B68     		ldr	r3, [r7]
 557 00aa 1B78     		ldrb	r3, [r3]
 558 00ac 1800     		movs	r0, r3
 559 00ae FFF7FEFF 		bl	PrintHex
 185:BLE_Central_Observer.c **** 		
 560              		.loc 1 185 0
 561 00b2 4AE0     		b	.L25
 562              	.L23:
 188:BLE_Central_Observer.c **** 	         printf("Peripheral connected. Press 'D' for disconnection \r\n");
 563              		.loc 1 188 0
ARM GAS  C:\Users\run1009\AppData\Local\Temp\ccpnfeqV.s 			page 16


 564 00b4 2B4B     		ldr	r3, .L32+16
 565 00b6 0022     		movs	r2, #0
 566 00b8 1A70     		strb	r2, [r3]
 189:BLE_Central_Observer.c ****              BLUE_LED_ON();
 567              		.loc 1 189 0
 568 00ba 2B4B     		ldr	r3, .L32+20
 569 00bc 1800     		movs	r0, r3
 570 00be FFF7FEFF 		bl	puts
 190:BLE_Central_Observer.c ****              if(CYBLE_ERROR_OK != CyBle_GapcStartScan(CYBLE_SCANNING_FAST))
 571              		.loc 1 190 0
 572 00c2 0120     		movs	r0, #1
 573 00c4 FFF7FEFF 		bl	RED_LED_Write
 574 00c8 0120     		movs	r0, #1
 575 00ca FFF7FEFF 		bl	GREEN_LED_Write
 576 00ce 0020     		movs	r0, #0
 577 00d0 FFF7FEFF 		bl	BLUE_LED_Write
 191:BLE_Central_Observer.c **** 		      {
 578              		.loc 1 191 0
 579 00d4 0020     		movs	r0, #0
 580 00d6 FFF7FEFF 		bl	CyBle_GapcStartScan
 581 00da 031E     		subs	r3, r0, #0
 582 00dc 32D0     		beq	.L30
 193:BLE_Central_Observer.c **** 		      }
 583              		.loc 1 193 0
 584 00de 234B     		ldr	r3, .L32+24
 585 00e0 1800     		movs	r0, r3
 586 00e2 FFF7FEFF 		bl	puts
 196:BLE_Central_Observer.c **** 			
 587              		.loc 1 196 0
 588 00e6 2DE0     		b	.L30
 589              	.L21:
 199:BLE_Central_Observer.c ****             IsConnected = 0;
 590              		.loc 1 199 0
 591 00e8 0020     		movs	r0, #0
 592 00ea FFF7FEFF 		bl	RED_LED_Write
 593 00ee 0120     		movs	r0, #1
 594 00f0 FFF7FEFF 		bl	GREEN_LED_Write
 595 00f4 0120     		movs	r0, #1
 596 00f6 FFF7FEFF 		bl	BLUE_LED_Write
 200:BLE_Central_Observer.c ****             printf("Peripheral Disconnected \r\n");
 597              		.loc 1 200 0
 598 00fa 184B     		ldr	r3, .L32+8
 599 00fc 0022     		movs	r2, #0
 600 00fe 1A70     		strb	r2, [r3]
 201:BLE_Central_Observer.c ****             if (!(IsSelected))
 601              		.loc 1 201 0
 602 0100 1B4B     		ldr	r3, .L32+28
 603 0102 1800     		movs	r0, r3
 604 0104 FFF7FEFF 		bl	puts
 202:BLE_Central_Observer.c ****             {
 605              		.loc 1 202 0
 606 0108 1A4B     		ldr	r3, .L32+32
 607 010a 1B78     		ldrb	r3, [r3]
 608 010c 002B     		cmp	r3, #0
 609 010e 1BD1     		bne	.L31
 204:BLE_Central_Observer.c ****     	       {
 610              		.loc 1 204 0
ARM GAS  C:\Users\run1009\AppData\Local\Temp\ccpnfeqV.s 			page 17


 611 0110 0020     		movs	r0, #0
 612 0112 FFF7FEFF 		bl	CyBle_GapcStartScan
 613 0116 031E     		subs	r3, r0, #0
 614 0118 04D0     		beq	.L28
 206:BLE_Central_Observer.c ****                }
 615              		.loc 1 206 0
 616 011a 174B     		ldr	r3, .L32+36
 617 011c 1800     		movs	r0, r3
 618 011e FFF7FEFF 		bl	printf
 214:BLE_Central_Observer.c **** 
 619              		.loc 1 214 0
 620 0122 11E0     		b	.L31
 621              	.L28:
 210:BLE_Central_Observer.c ****                  printf ("Scanning\r\n");
 622              		.loc 1 210 0
 623 0124 0120     		movs	r0, #1
 624 0126 FFF7FEFF 		bl	RED_LED_Write
 625 012a 0020     		movs	r0, #0
 626 012c FFF7FEFF 		bl	GREEN_LED_Write
 627 0130 0120     		movs	r0, #1
 628 0132 FFF7FEFF 		bl	BLUE_LED_Write
 211:BLE_Central_Observer.c ****                }
 629              		.loc 1 211 0
 630 0136 114B     		ldr	r3, .L32+40
 631 0138 1800     		movs	r0, r3
 632 013a FFF7FEFF 		bl	puts
 214:BLE_Central_Observer.c **** 
 633              		.loc 1 214 0
 634 013e 03E0     		b	.L31
 635              	.L29:
 162:BLE_Central_Observer.c **** 		
 636              		.loc 1 162 0
 637 0140 C046     		nop
 638 0142 02E0     		b	.L25
 639              	.L30:
 196:BLE_Central_Observer.c **** 			
 640              		.loc 1 196 0
 641 0144 C046     		nop
 642 0146 00E0     		b	.L25
 643              	.L31:
 214:BLE_Central_Observer.c **** 
 644              		.loc 1 214 0
 645 0148 C046     		nop
 646              	.L25:
 218:BLE_Central_Observer.c **** 	}
 219:BLE_Central_Observer.c **** }
 647              		.loc 1 219 0 discriminator 1
 648 014a C046     		nop
 649 014c BD46     		mov	sp, r7
 650 014e 08B0     		add	sp, sp, #32
 651              		@ sp needed
 652 0150 80BD     		pop	{r7, pc}
 653              	.L33:
 654 0152 C046     		.align	2
 655              	.L32:
 656 0154 90000000 		.word	.LC21
 657 0158 A8000000 		.word	.LC23
ARM GAS  C:\Users\run1009\AppData\Local\Temp\ccpnfeqV.s 			page 18


 658 015c 00000000 		.word	IsConnected
 659 0160 00000000 		.word	connHandle
 660 0164 00000000 		.word	devIndex
 661 0168 B4000000 		.word	.LC28
 662 016c E8000000 		.word	.LC30
 663 0170 00010000 		.word	.LC32
 664 0174 00000000 		.word	IsSelected
 665 0178 1C010000 		.word	.LC35
 666 017c 34010000 		.word	.LC37
 667              		.cfi_endproc
 668              	.LFE39:
 669              		.size	StackEventHandler, .-StackEventHandler
 670              		.section	.rodata
 671 013e 0000     		.align	2
 672              	.LC46:
 673 0140 436F6E6E 		.ascii	"Connection Request to peripheral failed \015\000"
 673      65637469 
 673      6F6E2052 
 673      65717565 
 673      73742074 
 674 016a 0000     		.align	2
 675              	.LC48:
 676 016c 436F6E6E 		.ascii	"Connection Request Sent to Peripheral \015\000"
 676      65637469 
 676      6F6E2052 
 676      65717565 
 676      73742053 
 677              		.section	.text.Handle_ble_Central_Observer_State,"ax",%progbits
 678              		.align	2
 679              		.global	Handle_ble_Central_Observer_State
 680              		.code	16
 681              		.thumb_func
 682              		.type	Handle_ble_Central_Observer_State, %function
 683              	Handle_ble_Central_Observer_State:
 684              	.LFB40:
 220:BLE_Central_Observer.c **** /*******************************************************************************
 221:BLE_Central_Observer.c **** * Function Name: Handle_ble_Central_Observer_State
 222:BLE_Central_Observer.c **** ********************************************************************************
 223:BLE_Central_Observer.c **** * Summary:
 224:BLE_Central_Observer.c **** * This function is used to handle connectio requests
 225:BLE_Central_Observer.c **** *
 226:BLE_Central_Observer.c **** * Parameters:
 227:BLE_Central_Observer.c **** * None
 228:BLE_Central_Observer.c **** *
 229:BLE_Central_Observer.c **** * Return:
 230:BLE_Central_Observer.c **** * void
 231:BLE_Central_Observer.c **** *
 232:BLE_Central_Observer.c **** *******************************************************************************/
 233:BLE_Central_Observer.c **** 
 234:BLE_Central_Observer.c **** void Handle_ble_Central_Observer_State(void)
 235:BLE_Central_Observer.c **** {
 685              		.loc 1 235 0
 686              		.cfi_startproc
 687              		@ args = 0, pretend = 0, frame = 0
 688              		@ frame_needed = 1, uses_anonymous_args = 0
 689 0000 80B5     		push	{r7, lr}
 690              		.cfi_def_cfa_offset 8
ARM GAS  C:\Users\run1009\AppData\Local\Temp\ccpnfeqV.s 			page 19


 691              		.cfi_offset 7, -8
 692              		.cfi_offset 14, -4
 693 0002 00AF     		add	r7, sp, #0
 694              		.cfi_def_cfa_register 7
 236:BLE_Central_Observer.c ****     if (CYBLE_STACK_STATE_BUSY == CyBle_GattGetBusStatus())
 695              		.loc 1 236 0
 696 0004 194B     		ldr	r3, .L40
 697 0006 1B78     		ldrb	r3, [r3]
 698 0008 DBB2     		uxtb	r3, r3
 699 000a 012B     		cmp	r3, #1
 700 000c 2BD0     		beq	.L39
 237:BLE_Central_Observer.c ****     {
 238:BLE_Central_Observer.c ****         /*If stack is busy wait for ready signal*/
 239:BLE_Central_Observer.c ****         return;
 240:BLE_Central_Observer.c ****     }
 241:BLE_Central_Observer.c **** 	
 242:BLE_Central_Observer.c **** 	if (!IsConnected)    
 701              		.loc 1 242 0
 702 000e 184B     		ldr	r3, .L40+4
 703 0010 1B78     		ldrb	r3, [r3]
 704 0012 002B     		cmp	r3, #0
 705 0014 28D1     		bne	.L34
 243:BLE_Central_Observer.c ****     {
 244:BLE_Central_Observer.c ****       if(CYBLE_STATE_DISCONNECTED == CyBle_GetState())
 706              		.loc 1 244 0
 707 0016 174B     		ldr	r3, .L40+8
 708 0018 1B78     		ldrb	r3, [r3]
 709 001a 052B     		cmp	r3, #5
 710 001c 24D1     		bne	.L34
 245:BLE_Central_Observer.c **** 	   {
 246:BLE_Central_Observer.c ****          if(IsSelected)
 711              		.loc 1 246 0
 712 001e 164B     		ldr	r3, .L40+12
 713 0020 1B78     		ldrb	r3, [r3]
 714 0022 002B     		cmp	r3, #0
 715 0024 20D0     		beq	.L34
 247:BLE_Central_Observer.c **** 		  {
 248:BLE_Central_Observer.c **** 		
 249:BLE_Central_Observer.c ****             apiResult = CyBle_GapcConnectDevice(&connectPeriphDevice[Periph_Selected]);
 716              		.loc 1 249 0
 717 0026 154B     		ldr	r3, .L40+16
 718 0028 1B78     		ldrb	r3, [r3]
 719 002a 1A00     		movs	r2, r3
 720 002c 1300     		movs	r3, r2
 721 002e DB00     		lsls	r3, r3, #3
 722 0030 9B1A     		subs	r3, r3, r2
 723 0032 134A     		ldr	r2, .L40+20
 724 0034 9B18     		adds	r3, r3, r2
 725 0036 1800     		movs	r0, r3
 726 0038 FFF7FEFF 		bl	CyBle_GapcConnectDevice
 727 003c 0300     		movs	r3, r0
 728 003e 1A00     		movs	r2, r3
 729 0040 104B     		ldr	r3, .L40+24
 730 0042 1A80     		strh	r2, [r3]
 250:BLE_Central_Observer.c **** 			if(CYBLE_ERROR_OK != apiResult )
 731              		.loc 1 250 0
 732 0044 0F4B     		ldr	r3, .L40+24
ARM GAS  C:\Users\run1009\AppData\Local\Temp\ccpnfeqV.s 			page 20


 733 0046 1B88     		ldrh	r3, [r3]
 734 0048 002B     		cmp	r3, #0
 735 004a 04D0     		beq	.L37
 251:BLE_Central_Observer.c **** 			{
 252:BLE_Central_Observer.c **** 			   printf ("Connection Request to peripheral failed \r\n");
 736              		.loc 1 252 0
 737 004c 0E4B     		ldr	r3, .L40+28
 738 004e 1800     		movs	r0, r3
 739 0050 FFF7FEFF 		bl	puts
 740 0054 03E0     		b	.L38
 741              	.L37:
 253:BLE_Central_Observer.c **** 			}
 254:BLE_Central_Observer.c ****             else
 255:BLE_Central_Observer.c ****             {
 256:BLE_Central_Observer.c ****                printf ("Connection Request Sent to Peripheral \r\n");
 742              		.loc 1 256 0
 743 0056 0D4B     		ldr	r3, .L40+32
 744 0058 1800     		movs	r0, r3
 745 005a FFF7FEFF 		bl	puts
 746              	.L38:
 257:BLE_Central_Observer.c ****             }
 258:BLE_Central_Observer.c ****             IsSelected = 0;
 747              		.loc 1 258 0
 748 005e 064B     		ldr	r3, .L40+12
 749 0060 0022     		movs	r2, #0
 750 0062 1A70     		strb	r2, [r3]
 751 0064 00E0     		b	.L34
 752              	.L39:
 239:BLE_Central_Observer.c ****     }
 753              		.loc 1 239 0
 754 0066 C046     		nop
 755              	.L34:
 259:BLE_Central_Observer.c **** 		  }
 260:BLE_Central_Observer.c **** 		}
 261:BLE_Central_Observer.c **** 	}
 262:BLE_Central_Observer.c **** 	
 263:BLE_Central_Observer.c **** }
 756              		.loc 1 263 0
 757 0068 BD46     		mov	sp, r7
 758              		@ sp needed
 759 006a 80BD     		pop	{r7, pc}
 760              	.L41:
 761              		.align	2
 762              	.L40:
 763 006c 00000000 		.word	cyBle_busyStatus
 764 0070 00000000 		.word	IsConnected
 765 0074 00000000 		.word	cyBle_state
 766 0078 00000000 		.word	IsSelected
 767 007c 00000000 		.word	Periph_Selected
 768 0080 00000000 		.word	connectPeriphDevice
 769 0084 00000000 		.word	apiResult
 770 0088 40010000 		.word	.LC46
 771 008c 6C010000 		.word	.LC48
 772              		.cfi_endproc
 773              	.LFE40:
 774              		.size	Handle_ble_Central_Observer_State, .-Handle_ble_Central_Observer_State
 775              		.text
ARM GAS  C:\Users\run1009\AppData\Local\Temp\ccpnfeqV.s 			page 21


 776              	.Letext0:
 777              		.file 2 "Generated_Source\\PSoC4/cytypes.h"
 778              		.file 3 "Generated_Source\\PSoC4/BLE_Stack.h"
 779              		.file 4 "Generated_Source\\PSoC4/BLE_StackHostMain.h"
 780              		.file 5 "Generated_Source\\PSoC4/BLE_StackGap.h"
 781              		.file 6 "Generated_Source\\PSoC4/BLE_StackGatt.h"
 782              		.file 7 "Generated_Source\\PSoC4/BLE_eventHandler.h"
 783              		.file 8 "main.h"