ARM GAS  C:\Users\run1009\AppData\Local\Temp\ccbk8P2e.s 			page 1


   1              		.syntax unified
   2              		.cpu cortex-m0
   3              		.fpu softvfp
   4              		.eabi_attribute 20, 1
   5              		.eabi_attribute 21, 1
   6              		.eabi_attribute 23, 3
   7              		.eabi_attribute 24, 1
   8              		.eabi_attribute 25, 1
   9              		.eabi_attribute 26, 1
  10              		.eabi_attribute 30, 6
  11              		.eabi_attribute 34, 0
  12              		.eabi_attribute 18, 4
  13              		.thumb
  14              		.syntax unified
  15              		.file	"debug.c"
  16              		.text
  17              	.Ltext0:
  18              		.cfi_sections	.debug_frame
  19              		.section	.text._write,"ax",%progbits
  20              		.align	2
  21              		.global	_write
  22              		.code	16
  23              		.thumb_func
  24              		.type	_write, %function
  25              	_write:
  26              	.LFB38:
  27              		.file 1 "debug.c"
   1:debug.c       **** /* ========================================
   2:debug.c       ****  *
   3:debug.c       ****  * Copyright YOUR COMPANY, THE YEAR
   4:debug.c       ****  * All Rights Reserved
   5:debug.c       ****  * UNPUBLISHED, LICENSED SOFTWARE.
   6:debug.c       ****  *
   7:debug.c       ****  * CONFIDENTIAL AND PROPRIETARY INFORMATION
   8:debug.c       ****  * WHICH IS THE PROPERTY OF your company.
   9:debug.c       ****  *
  10:debug.c       ****  * ========================================
  11:debug.c       **** */
  12:debug.c       **** 
  13:debug.c       **** #include "debug.h"
  14:debug.c       **** 
  15:debug.c       **** 
  16:debug.c       **** #if defined(__ARMCC_VERSION)
  17:debug.c       ****     
  18:debug.c       **** /* For MDK/RVDS compiler revise fputc function for printf functionality */
  19:debug.c       **** struct __FILE 
  20:debug.c       **** {
  21:debug.c       ****     int handle;  
  22:debug.c       **** };
  23:debug.c       **** 
  24:debug.c       **** enum 
  25:debug.c       **** {
  26:debug.c       ****     STDIN_HANDLE,
  27:debug.c       ****     STDOUT_HANDLE,
  28:debug.c       ****     STDERR_HANDLE
  29:debug.c       **** };
  30:debug.c       **** 
ARM GAS  C:\Users\run1009\AppData\Local\Temp\ccbk8P2e.s 			page 2


  31:debug.c       **** FILE __stdin = {STDIN_HANDLE};
  32:debug.c       **** FILE __stdout = {STDOUT_HANDLE};
  33:debug.c       **** FILE __stderr = {STDERR_HANDLE};
  34:debug.c       **** 
  35:debug.c       **** int fputc(int ch, FILE *file) 
  36:debug.c       **** {
  37:debug.c       ****     int ret = EOF;
  38:debug.c       **** 
  39:debug.c       ****     switch( file->handle )
  40:debug.c       ****     {
  41:debug.c       ****         case STDOUT_HANDLE:
  42:debug.c       ****             UART_DEB_UartPutChar(ch);
  43:debug.c       ****             ret = ch ;
  44:debug.c       ****             break ;
  45:debug.c       **** 
  46:debug.c       ****         case STDERR_HANDLE:
  47:debug.c       ****             ret = ch ;
  48:debug.c       ****             break ;
  49:debug.c       **** 
  50:debug.c       ****         default:
  51:debug.c       ****             file = file;
  52:debug.c       ****             break ;
  53:debug.c       ****     }
  54:debug.c       ****     return ret ;
  55:debug.c       **** }
  56:debug.c       **** 
  57:debug.c       **** #elif defined (__ICCARM__)      /* IAR */
  58:debug.c       **** 
  59:debug.c       **** /* For IAR compiler revise __write() function for printf functionality */
  60:debug.c       **** size_t __write(int handle, const unsigned char * buffer, size_t size)
  61:debug.c       **** {
  62:debug.c       ****     size_t nChars = 0;
  63:debug.c       **** 
  64:debug.c       ****     if (buffer == 0)
  65:debug.c       ****     {
  66:debug.c       ****         /*
  67:debug.c       ****          * This means that we should flush internal buffers.  Since we
  68:debug.c       ****          * don't we just return.  (Remember, "handle" == -1 means that all
  69:debug.c       ****          * handles should be flushed.)
  70:debug.c       ****          */
  71:debug.c       ****         return (0);
  72:debug.c       ****     }
  73:debug.c       **** 
  74:debug.c       ****     for (/* Empty */; size != 0; --size)
  75:debug.c       ****     {
  76:debug.c       ****         UART_DEB_UartPutChar(*buffer++);
  77:debug.c       ****         ++nChars;
  78:debug.c       ****     }
  79:debug.c       **** 
  80:debug.c       ****     return (nChars);
  81:debug.c       **** }
  82:debug.c       **** 
  83:debug.c       **** #else  /* (__GNUC__)  GCC */
  84:debug.c       **** 
  85:debug.c       **** /* For GCC compiler revise _write() function for printf functionality */
  86:debug.c       **** int _write(int file, char *ptr, int len)
  87:debug.c       **** {
ARM GAS  C:\Users\run1009\AppData\Local\Temp\ccbk8P2e.s 			page 3


  28              		.loc 1 87 0
  29              		.cfi_startproc
  30              		@ args = 0, pretend = 0, frame = 24
  31              		@ frame_needed = 1, uses_anonymous_args = 0
  32 0000 80B5     		push	{r7, lr}
  33              		.cfi_def_cfa_offset 8
  34              		.cfi_offset 7, -8
  35              		.cfi_offset 14, -4
  36 0002 86B0     		sub	sp, sp, #24
  37              		.cfi_def_cfa_offset 32
  38 0004 00AF     		add	r7, sp, #0
  39              		.cfi_def_cfa_register 7
  40 0006 F860     		str	r0, [r7, #12]
  41 0008 B960     		str	r1, [r7, #8]
  42 000a 7A60     		str	r2, [r7, #4]
  88:debug.c       ****     int i;
  89:debug.c       ****     file = file;
  90:debug.c       ****     for (i = 0; i < len; i++)
  43              		.loc 1 90 0
  44 000c 0023     		movs	r3, #0
  45 000e 7B61     		str	r3, [r7, #20]
  46 0010 09E0     		b	.L2
  47              	.L3:
  91:debug.c       ****     {
  92:debug.c       ****         UART_UartPutChar(*ptr++);
  48              		.loc 1 92 0 discriminator 3
  49 0012 BB68     		ldr	r3, [r7, #8]
  50 0014 5A1C     		adds	r2, r3, #1
  51 0016 BA60     		str	r2, [r7, #8]
  52 0018 1B78     		ldrb	r3, [r3]
  53 001a 1800     		movs	r0, r3
  54 001c FFF7FEFF 		bl	UART_SpiUartWriteTxData
  90:debug.c       ****     {
  55              		.loc 1 90 0 discriminator 3
  56 0020 7B69     		ldr	r3, [r7, #20]
  57 0022 0133     		adds	r3, r3, #1
  58 0024 7B61     		str	r3, [r7, #20]
  59              	.L2:
  90:debug.c       ****     {
  60              		.loc 1 90 0 is_stmt 0 discriminator 1
  61 0026 7A69     		ldr	r2, [r7, #20]
  62 0028 7B68     		ldr	r3, [r7, #4]
  63 002a 9A42     		cmp	r2, r3
  64 002c F1DB     		blt	.L3
  93:debug.c       ****     }
  94:debug.c       ****     return len;
  65              		.loc 1 94 0 is_stmt 1
  66 002e 7B68     		ldr	r3, [r7, #4]
  95:debug.c       **** }
  67              		.loc 1 95 0
  68 0030 1800     		movs	r0, r3
  69 0032 BD46     		mov	sp, r7
  70 0034 06B0     		add	sp, sp, #24
  71              		@ sp needed
  72 0036 80BD     		pop	{r7, pc}
  73              		.cfi_endproc
  74              	.LFE38:
ARM GAS  C:\Users\run1009\AppData\Local\Temp\ccbk8P2e.s 			page 4


  75              		.size	_write, .-_write
  76              		.section	.text.PrintHex,"ax",%progbits
  77              		.align	2
  78              		.global	PrintHex
  79              		.code	16
  80              		.thumb_func
  81              		.type	PrintHex, %function
  82              	PrintHex:
  83              	.LFB39:
  96:debug.c       **** 
  97:debug.c       **** 
  98:debug.c       **** #endif  /* (__ARMCC_VERSION) */   
  99:debug.c       **** 
 100:debug.c       **** 
 101:debug.c       **** /*******************************************************************************
 102:debug.c       **** * Function Name: PrintHex
 103:debug.c       **** ********************************************************************************
 104:debug.c       **** * Summary:
 105:debug.c       **** *        Converts HEX number to characters in ASCII that can be printed on 
 106:debug.c       **** * terminal.
 107:debug.c       **** *
 108:debug.c       **** * Parameters:
 109:debug.c       **** *  num: HEX to be converted to string.
 110:debug.c       **** *
 111:debug.c       **** * Return:
 112:debug.c       **** *  void
 113:debug.c       **** *
 114:debug.c       **** *******************************************************************************/
 115:debug.c       **** void PrintHex(uint8 num)
 116:debug.c       **** {
  84              		.loc 1 116 0
  85              		.cfi_startproc
  86              		@ args = 0, pretend = 0, frame = 8
  87              		@ frame_needed = 1, uses_anonymous_args = 0
  88 0000 80B5     		push	{r7, lr}
  89              		.cfi_def_cfa_offset 8
  90              		.cfi_offset 7, -8
  91              		.cfi_offset 14, -4
  92 0002 82B0     		sub	sp, sp, #8
  93              		.cfi_def_cfa_offset 16
  94 0004 00AF     		add	r7, sp, #0
  95              		.cfi_def_cfa_register 7
  96 0006 0200     		movs	r2, r0
  97 0008 FB1D     		adds	r3, r7, #7
  98 000a 1A70     		strb	r2, [r3]
 117:debug.c       **** 	#if (DEBUG_ENABLED == 1)
 118:debug.c       **** 	uint8 temp[2];
 119:debug.c       **** 	
 120:debug.c       **** 	temp[0] = num%16;
 121:debug.c       **** 	num = num/16;
 122:debug.c       **** 	temp[1] = num%16;
 123:debug.c       **** 
 124:debug.c       **** 	UART_UartPutString("0x");
 125:debug.c       **** 	if(temp[1] < 10)
 126:debug.c       **** 	{
 127:debug.c       **** 		UART_UartPutChar('0' + temp[1]);
 128:debug.c       **** 	}
ARM GAS  C:\Users\run1009\AppData\Local\Temp\ccbk8P2e.s 			page 5


 129:debug.c       **** 	else
 130:debug.c       **** 	{
 131:debug.c       **** 		UART_UartPutChar('A' + (temp[1] - 10));
 132:debug.c       **** 	}
 133:debug.c       **** 
 134:debug.c       **** 	if(temp[0] < 10)
 135:debug.c       **** 	{
 136:debug.c       **** 		UART_UartPutChar('0' + temp[0]);
 137:debug.c       **** 	}
 138:debug.c       **** 	else
 139:debug.c       **** 	{
 140:debug.c       **** 		UART_UartPutChar('A' + (temp[0] - 10));
 141:debug.c       **** 	}
 142:debug.c       **** 	#else
 143:debug.c       **** 		num = num;
  99              		.loc 1 143 0
 100 000c FB1D     		adds	r3, r7, #7
 101 000e FA1D     		adds	r2, r7, #7
 102 0010 1278     		ldrb	r2, [r2]
 103 0012 1A70     		strb	r2, [r3]
 144:debug.c       **** 	#endif
 145:debug.c       **** }
 104              		.loc 1 145 0
 105 0014 C046     		nop
 106 0016 BD46     		mov	sp, r7
 107 0018 02B0     		add	sp, sp, #8
 108              		@ sp needed
 109 001a 80BD     		pop	{r7, pc}
 110              		.cfi_endproc
 111              	.LFE39:
 112              		.size	PrintHex, .-PrintHex
 113              		.section	.rodata
 114              		.align	2
 115              	.LC1:
 116 0000 4359424C 		.ascii	"CYBLE_EVT_HOST_INVALID \015\000"
 116      455F4556 
 116      545F484F 
 116      53545F49 
 116      4E56414C 
 117 0019 000000   		.align	2
 118              	.LC3:
 119 001c 4359424C 		.ascii	"CYBLE_EVT_STACK_ON \015\000"
 119      455F4556 
 119      545F5354 
 119      41434B5F 
 119      4F4E200D 
 120 0031 000000   		.align	2
 121              	.LC5:
 122 0034 4359424C 		.ascii	"CYBLE_EVT_TIMEOUT \015\000"
 122      455F4556 
 122      545F5449 
 122      4D454F55 
 122      54200D00 
 123              		.align	2
 124              	.LC7:
 125 0048 4359424C 		.ascii	"CYBLE_EVT_HARDWARE_ERROR \015\000"
 125      455F4556 
ARM GAS  C:\Users\run1009\AppData\Local\Temp\ccbk8P2e.s 			page 6


 125      545F4841 
 125      52445741 
 125      52455F45 
 126 0063 00       		.align	2
 127              	.LC9:
 128 0064 4359424C 		.ascii	"CYBLE_EVT_HCI_STATUS \015\000"
 128      455F4556 
 128      545F4843 
 128      495F5354 
 128      41545553 
 129 007b 00       		.align	2
 130              	.LC11:
 131 007c 4359424C 		.ascii	"CYBLE_EVT_STACK_BUSY_STATUS \015\000"
 131      455F4556 
 131      545F5354 
 131      41434B5F 
 131      42555359 
 132 009a 0000     		.align	2
 133              	.LC13:
 134 009c 4359424C 		.ascii	"CYBLE_EVT_GAPC_SCAN_PROGRESS_RESULT \015\000"
 134      455F4556 
 134      545F4741 
 134      50435F53 
 134      43414E5F 
 135 00c2 0000     		.align	2
 136              	.LC15:
 137 00c4 4359424C 		.ascii	"CYBLE_EVT_GAP_AUTH_REQ \015\000"
 137      455F4556 
 137      545F4741 
 137      505F4155 
 137      54485F52 
 138 00dd 000000   		.align	2
 139              	.LC17:
 140 00e0 4359424C 		.ascii	"CYBLE_EVT_GAP_PASSKEY_ENTRY_REQUEST \015\000"
 140      455F4556 
 140      545F4741 
 140      505F5041 
 140      53534B45 
 141 0106 0000     		.align	2
 142              	.LC19:
 143 0108 4359424C 		.ascii	"CYBLE_EVT_GAP_PASSKEY_DISPLAY_REQUEST \015\000"
 143      455F4556 
 143      545F4741 
 143      505F5041 
 143      53534B45 
 144              		.align	2
 145              	.LC21:
 146 0130 4359424C 		.ascii	"CYBLE_EVT_GAP_AUTH_COMPLETE \015\000"
 146      455F4556 
 146      545F4741 
 146      505F4155 
 146      54485F43 
 147 014e 0000     		.align	2
 148              	.LC23:
 149 0150 4359424C 		.ascii	"CYBLE_EVT_GAP_AUTH_FAILED \015\000"
 149      455F4556 
 149      545F4741 
ARM GAS  C:\Users\run1009\AppData\Local\Temp\ccbk8P2e.s 			page 7


 149      505F4155 
 149      54485F46 
 150              		.align	2
 151              	.LC25:
 152 016c 4359424C 		.ascii	"CYBLE_EVT_GAPP_ADVERTISEMENT_START_STOP \015\000"
 152      455F4556 
 152      545F4741 
 152      50505F41 
 152      44564552 
 153 0196 0000     		.align	2
 154              	.LC27:
 155 0198 4359424C 		.ascii	"CYBLE_EVT_GAP_DEVICE_CONNECTED \015\000"
 155      455F4556 
 155      545F4741 
 155      505F4445 
 155      56494345 
 156 01b9 000000   		.align	2
 157              	.LC29:
 158 01bc 4359424C 		.ascii	"CYBLE_EVT_GAP_DEVICE_DISCONNECTED \015\000"
 158      455F4556 
 158      545F4741 
 158      505F4445 
 158      56494345 
 159              		.align	2
 160              	.LC31:
 161 01e0 4359424C 		.ascii	"CYBLE_EVT_GAP_ENCRYPT_CHANGE \015\000"
 161      455F4556 
 161      545F4741 
 161      505F454E 
 161      43525950 
 162 01ff 00       		.align	2
 163              	.LC33:
 164 0200 4359424C 		.ascii	"CYBLE_EVT_GAP_CONNECTION_UPDATE_COMPLETE \015\000"
 164      455F4556 
 164      545F4741 
 164      505F434F 
 164      4E4E4543 
 165 022b 00       		.align	2
 166              	.LC35:
 167 022c 4359424C 		.ascii	"CYBLE_EVT_GAPC_SCAN_START_STOP \015\000"
 167      455F4556 
 167      545F4741 
 167      50435F53 
 167      43414E5F 
 168 024d 000000   		.align	2
 169              	.LC37:
 170 0250 4359424C 		.ascii	"CYBLE_EVT_GAP_KEYINFO_EXCHNGE_CMPLT \015\000"
 170      455F4556 
 170      545F4741 
 170      505F4B45 
 170      59494E46 
 171 0276 0000     		.align	2
 172              	.LC39:
 173 0278 4359424C 		.ascii	"CYBLE_EVT_GATTC_ERROR_RSP \015\000"
 173      455F4556 
 173      545F4741 
 173      5454435F 
ARM GAS  C:\Users\run1009\AppData\Local\Temp\ccbk8P2e.s 			page 8


 173      4552524F 
 174              		.align	2
 175              	.LC41:
 176 0294 4359424C 		.ascii	"CYBLE_EVT_GATT_CONNECT_IND \015\000"
 176      455F4556 
 176      545F4741 
 176      54545F43 
 176      4F4E4E45 
 177 02b1 000000   		.align	2
 178              	.LC43:
 179 02b4 4359424C 		.ascii	"CYBLE_EVT_GATT_DISCONNECT_IND \015\000"
 179      455F4556 
 179      545F4741 
 179      54545F44 
 179      4953434F 
 180              		.align	2
 181              	.LC45:
 182 02d4 4359424C 		.ascii	"CYBLE_EVT_GATTS_XCNHG_MTU_REQ \015\000"
 182      455F4556 
 182      545F4741 
 182      5454535F 
 182      58434E48 
 183              		.align	2
 184              	.LC47:
 185 02f4 4359424C 		.ascii	"CYBLE_EVT_GATTC_XCHNG_MTU_RSP \015\000"
 185      455F4556 
 185      545F4741 
 185      5454435F 
 185      5843484E 
 186              		.align	2
 187              	.LC49:
 188 0314 4359424C 		.ascii	"CYBLE_EVT_GATTC_READ_BY_GROUP_TYPE_RSP \015\000"
 188      455F4556 
 188      545F4741 
 188      5454435F 
 188      52454144 
 189 033d 000000   		.align	2
 190              	.LC51:
 191 0340 4359424C 		.ascii	"CYBLE_EVT_GATTC_READ_BY_TYPE_RSP \015\000"
 191      455F4556 
 191      545F4741 
 191      5454435F 
 191      52454144 
 192 0363 00       		.align	2
 193              	.LC53:
 194 0364 4359424C 		.ascii	"CYBLE_EVT_GATTC_FIND_INFO_RSP \015\000"
 194      455F4556 
 194      545F4741 
 194      5454435F 
 194      46494E44 
 195              		.align	2
 196              	.LC55:
 197 0384 4359424C 		.ascii	"CYBLE_EVT_GATTC_FIND_BY_TYPE_VALUE_RSP \015\000"
 197      455F4556 
 197      545F4741 
 197      5454435F 
 197      46494E44 
ARM GAS  C:\Users\run1009\AppData\Local\Temp\ccbk8P2e.s 			page 9


 198 03ad 000000   		.align	2
 199              	.LC57:
 200 03b0 4359424C 		.ascii	"CYBLE_EVT_GATTC_READ_RSP \015\000"
 200      455F4556 
 200      545F4741 
 200      5454435F 
 200      52454144 
 201 03cb 00       		.align	2
 202              	.LC59:
 203 03cc 4359424C 		.ascii	"CYBLE_EVT_GATTC_READ_BLOB_RSP \015\000"
 203      455F4556 
 203      545F4741 
 203      5454435F 
 203      52454144 
 204              		.align	2
 205              	.LC61:
 206 03ec 4359424C 		.ascii	"CYBLE_EVT_GATTC_READ_MULTI_RSP \015\000"
 206      455F4556 
 206      545F4741 
 206      5454435F 
 206      52454144 
 207 040d 000000   		.align	2
 208              	.LC63:
 209 0410 4359424C 		.ascii	"CYBLE_EVT_GATTS_WRITE_REQ \015\000"
 209      455F4556 
 209      545F4741 
 209      5454535F 
 209      57524954 
 210              		.align	2
 211              	.LC65:
 212 042c 4359424C 		.ascii	"CYBLE_EVT_GATTC_WRITE_RSP \015\000"
 212      455F4556 
 212      545F4741 
 212      5454435F 
 212      57524954 
 213              		.align	2
 214              	.LC67:
 215 0448 4359424C 		.ascii	"CYBLE_EVT_GATTS_WRITE_CMD_REQ \015\000"
 215      455F4556 
 215      545F4741 
 215      5454535F 
 215      57524954 
 216              		.align	2
 217              	.LC69:
 218 0468 4359424C 		.ascii	"CYBLE_EVT_GATTS_PREP_WRITE_REQ \015\000"
 218      455F4556 
 218      545F4741 
 218      5454535F 
 218      50524550 
 219 0489 000000   		.align	2
 220              	.LC71:
 221 048c 4359424C 		.ascii	"CYBLE_EVT_GATTS_EXEC_WRITE_REQ \015\000"
 221      455F4556 
 221      545F4741 
 221      5454535F 
 221      45584543 
 222 04ad 000000   		.align	2
ARM GAS  C:\Users\run1009\AppData\Local\Temp\ccbk8P2e.s 			page 10


 223              	.LC73:
 224 04b0 4359424C 		.ascii	"CYBLE_EVT_GATTC_EXEC_WRITE_RSP \015\000"
 224      455F4556 
 224      545F4741 
 224      5454435F 
 224      45584543 
 225 04d1 000000   		.align	2
 226              	.LC75:
 227 04d4 4359424C 		.ascii	"CYBLE_EVT_GATTC_HANDLE_VALUE_NTF \015\000"
 227      455F4556 
 227      545F4741 
 227      5454435F 
 227      48414E44 
 228 04f7 00       		.align	2
 229              	.LC77:
 230 04f8 4359424C 		.ascii	"CYBLE_EVT_GATTC_HANDLE_VALUE_IND \015\000"
 230      455F4556 
 230      545F4741 
 230      5454435F 
 230      48414E44 
 231 051b 00       		.align	2
 232              	.LC79:
 233 051c 4359424C 		.ascii	"CYBLE_EVT_GATTS_HANDLE_VALUE_CNF \015\000"
 233      455F4556 
 233      545F4741 
 233      5454535F 
 233      48414E44 
 234 053f 00       		.align	2
 235              	.LC81:
 236 0540 4359424C 		.ascii	"CYBLE_EVT_GATTS_DATA_SIGNED_CMD_REQ \015\000"
 236      455F4556 
 236      545F4741 
 236      5454535F 
 236      44415441 
 237 0566 0000     		.align	2
 238              	.LC83:
 239 0568 4359424C 		.ascii	"CYBLE_EVT_L2CAP_CONN_PARAM_UPDATE_REQ \015\000"
 239      455F4556 
 239      545F4C32 
 239      4341505F 
 239      434F4E4E 
 240              		.align	2
 241              	.LC85:
 242 0590 4359424C 		.ascii	"CYBLE_EVT_L2CAP_CONN_PARAM_UPDATE_RSP \015\000"
 242      455F4556 
 242      545F4C32 
 242      4341505F 
 242      434F4E4E 
 243              		.align	2
 244              	.LC87:
 245 05b8 4359424C 		.ascii	"CYBLE_EVT_L2CAP_COMMAND_REJ \015\000"
 245      455F4556 
 245      545F4C32 
 245      4341505F 
 245      434F4D4D 
 246 05d6 0000     		.align	2
 247              	.LC89:
ARM GAS  C:\Users\run1009\AppData\Local\Temp\ccbk8P2e.s 			page 11


 248 05d8 4359424C 		.ascii	"CYBLE_EVT_L2CAP_CBFC_CONN_IND \015\000"
 248      455F4556 
 248      545F4C32 
 248      4341505F 
 248      43424643 
 249              		.align	2
 250              	.LC91:
 251 05f8 4359424C 		.ascii	"CYBLE_EVT_L2CAP_CBFC_CONN_CNF \015\000"
 251      455F4556 
 251      545F4C32 
 251      4341505F 
 251      43424643 
 252              		.align	2
 253              	.LC93:
 254 0618 4359424C 		.ascii	"CYBLE_EVT_L2CAP_CBFC_DISCONN_IND \015\000"
 254      455F4556 
 254      545F4C32 
 254      4341505F 
 254      43424643 
 255 063b 00       		.align	2
 256              	.LC95:
 257 063c 4359424C 		.ascii	"CYBLE_EVT_L2CAP_CBFC_DISCONN_CNF \015\000"
 257      455F4556 
 257      545F4C32 
 257      4341505F 
 257      43424643 
 258 065f 00       		.align	2
 259              	.LC97:
 260 0660 4359424C 		.ascii	"CYBLE_EVT_L2CAP_CBFC_DATA_READ \015\000"
 260      455F4556 
 260      545F4C32 
 260      4341505F 
 260      43424643 
 261 0681 000000   		.align	2
 262              	.LC99:
 263 0684 4359424C 		.ascii	"CYBLE_EVT_L2CAP_CBFC_RX_CREDIT_IND \015\000"
 263      455F4556 
 263      545F4C32 
 263      4341505F 
 263      43424643 
 264 06a9 000000   		.align	2
 265              	.LC101:
 266 06ac 4359424C 		.ascii	"CYBLE_EVT_L2CAP_CBFC_TX_CREDIT_IND \015\000"
 266      455F4556 
 266      545F4C32 
 266      4341505F 
 266      43424643 
 267 06d1 000000   		.align	2
 268              	.LC103:
 269 06d4 4359424C 		.ascii	"CYBLE_EVT_L2CAP_CBFC_DATA_WRITE_IND \015\000"
 269      455F4556 
 269      545F4C32 
 269      4341505F 
 269      43424643 
 270 06fa 0000     		.align	2
 271              	.LC105:
 272 06fc 4359424C 		.ascii	"CYBLE_EVT_PENDING_FLASH_WRITE \015\000"
ARM GAS  C:\Users\run1009\AppData\Local\Temp\ccbk8P2e.s 			page 12


 272      455F4556 
 272      545F5045 
 272      4E44494E 
 272      475F464C 
 273              		.align	2
 274              	.LC107:
 275 071c 4359424C 		.ascii	"CYBLE_EVT_MAX \015\000"
 275      455F4556 
 275      545F4D41 
 275      58200D00 
 276              		.section	.text.print_event,"ax",%progbits
 277              		.align	2
 278              		.global	print_event
 279              		.code	16
 280              		.thumb_func
 281              		.type	print_event, %function
 282              	print_event:
 283              	.LFB40:
 146:debug.c       **** 
 147:debug.c       **** 
 148:debug.c       **** void print_event(uint32 event)
 149:debug.c       **** {
 284              		.loc 1 149 0
 285              		.cfi_startproc
 286              		@ args = 0, pretend = 0, frame = 8
 287              		@ frame_needed = 1, uses_anonymous_args = 0
 288 0000 80B5     		push	{r7, lr}
 289              		.cfi_def_cfa_offset 8
 290              		.cfi_offset 7, -8
 291              		.cfi_offset 14, -4
 292 0002 82B0     		sub	sp, sp, #8
 293              		.cfi_def_cfa_offset 16
 294 0004 00AF     		add	r7, sp, #0
 295              		.cfi_def_cfa_register 7
 296 0006 7860     		str	r0, [r7, #4]
 150:debug.c       **** 	switch(event)
 297              		.loc 1 150 0
 298 0008 7B68     		ldr	r3, [r7, #4]
 299 000a FF2B     		cmp	r3, #255
 300 000c 00D9     		bls	.LCB93
 301 000e 13E1     		b	.L64	@long jump
 302              	.LCB93:
 303 0010 7B68     		ldr	r3, [r7, #4]
 304 0012 9A00     		lsls	r2, r3, #2
 305 0014 8B4B     		ldr	r3, .L65
 306 0016 D318     		adds	r3, r2, r3
 307 0018 1B68     		ldr	r3, [r3]
 308 001a 9F46     		mov	pc, r3
 309              		.section	.rodata
 310              		.align	2
 311              	.L9:
 312 072c 1C000000 		.word	.L8
 313 0730 26000000 		.word	.L10
 314 0734 30000000 		.word	.L11
 315 0738 3A000000 		.word	.L12
 316 073c 44000000 		.word	.L13
 317 0740 4E000000 		.word	.L14
ARM GAS  C:\Users\run1009\AppData\Local\Temp\ccbk8P2e.s 			page 13


 318 0744 38020000 		.word	.L64
 319 0748 38020000 		.word	.L64
 320 074c 38020000 		.word	.L64
 321 0750 38020000 		.word	.L64
 322 0754 38020000 		.word	.L64
 323 0758 38020000 		.word	.L64
 324 075c 38020000 		.word	.L64
 325 0760 38020000 		.word	.L64
 326 0764 38020000 		.word	.L64
 327 0768 38020000 		.word	.L64
 328 076c 38020000 		.word	.L64
 329 0770 38020000 		.word	.L64
 330 0774 38020000 		.word	.L64
 331 0778 38020000 		.word	.L64
 332 077c 38020000 		.word	.L64
 333 0780 38020000 		.word	.L64
 334 0784 38020000 		.word	.L64
 335 0788 38020000 		.word	.L64
 336 078c 38020000 		.word	.L64
 337 0790 38020000 		.word	.L64
 338 0794 38020000 		.word	.L64
 339 0798 38020000 		.word	.L64
 340 079c 38020000 		.word	.L64
 341 07a0 38020000 		.word	.L64
 342 07a4 38020000 		.word	.L64
 343 07a8 38020000 		.word	.L64
 344 07ac 58000000 		.word	.L15
 345 07b0 62000000 		.word	.L16
 346 07b4 6C000000 		.word	.L17
 347 07b8 76000000 		.word	.L18
 348 07bc 80000000 		.word	.L19
 349 07c0 8A000000 		.word	.L20
 350 07c4 94000000 		.word	.L21
 351 07c8 9E000000 		.word	.L22
 352 07cc A8000000 		.word	.L23
 353 07d0 B2000000 		.word	.L24
 354 07d4 BC000000 		.word	.L25
 355 07d8 C6000000 		.word	.L26
 356 07dc D0000000 		.word	.L27
 357 07e0 38020000 		.word	.L64
 358 07e4 38020000 		.word	.L64
 359 07e8 38020000 		.word	.L64
 360 07ec 38020000 		.word	.L64
 361 07f0 38020000 		.word	.L64
 362 07f4 38020000 		.word	.L64
 363 07f8 38020000 		.word	.L64
 364 07fc 38020000 		.word	.L64
 365 0800 38020000 		.word	.L64
 366 0804 38020000 		.word	.L64
 367 0808 38020000 		.word	.L64
 368 080c 38020000 		.word	.L64
 369 0810 38020000 		.word	.L64
 370 0814 38020000 		.word	.L64
 371 0818 38020000 		.word	.L64
 372 081c 38020000 		.word	.L64
 373 0820 38020000 		.word	.L64
 374 0824 38020000 		.word	.L64
ARM GAS  C:\Users\run1009\AppData\Local\Temp\ccbk8P2e.s 			page 14


 375 0828 38020000 		.word	.L64
 376 082c DA000000 		.word	.L28
 377 0830 E4000000 		.word	.L29
 378 0834 EE000000 		.word	.L30
 379 0838 F8000000 		.word	.L31
 380 083c 02010000 		.word	.L32
 381 0840 0C010000 		.word	.L33
 382 0844 16010000 		.word	.L34
 383 0848 20010000 		.word	.L35
 384 084c 2A010000 		.word	.L36
 385 0850 34010000 		.word	.L37
 386 0854 3E010000 		.word	.L38
 387 0858 48010000 		.word	.L39
 388 085c 52010000 		.word	.L40
 389 0860 5C010000 		.word	.L41
 390 0864 66010000 		.word	.L42
 391 0868 70010000 		.word	.L43
 392 086c 7A010000 		.word	.L44
 393 0870 84010000 		.word	.L45
 394 0874 8E010000 		.word	.L46
 395 0878 98010000 		.word	.L47
 396 087c A2010000 		.word	.L48
 397 0880 AC010000 		.word	.L49
 398 0884 38020000 		.word	.L64
 399 0888 38020000 		.word	.L64
 400 088c 38020000 		.word	.L64
 401 0890 38020000 		.word	.L64
 402 0894 38020000 		.word	.L64
 403 0898 38020000 		.word	.L64
 404 089c 38020000 		.word	.L64
 405 08a0 38020000 		.word	.L64
 406 08a4 38020000 		.word	.L64
 407 08a8 38020000 		.word	.L64
 408 08ac 38020000 		.word	.L64
 409 08b0 38020000 		.word	.L64
 410 08b4 38020000 		.word	.L64
 411 08b8 38020000 		.word	.L64
 412 08bc 38020000 		.word	.L64
 413 08c0 38020000 		.word	.L64
 414 08c4 38020000 		.word	.L64
 415 08c8 38020000 		.word	.L64
 416 08cc 38020000 		.word	.L64
 417 08d0 38020000 		.word	.L64
 418 08d4 38020000 		.word	.L64
 419 08d8 38020000 		.word	.L64
 420 08dc 38020000 		.word	.L64
 421 08e0 38020000 		.word	.L64
 422 08e4 38020000 		.word	.L64
 423 08e8 38020000 		.word	.L64
 424 08ec B6010000 		.word	.L50
 425 08f0 C0010000 		.word	.L51
 426 08f4 CA010000 		.word	.L52
 427 08f8 D4010000 		.word	.L53
 428 08fc DE010000 		.word	.L54
 429 0900 E8010000 		.word	.L55
 430 0904 F2010000 		.word	.L56
 431 0908 FC010000 		.word	.L57
ARM GAS  C:\Users\run1009\AppData\Local\Temp\ccbk8P2e.s 			page 15


 432 090c 06020000 		.word	.L58
 433 0910 10020000 		.word	.L59
 434 0914 1A020000 		.word	.L60
 435 0918 38020000 		.word	.L64
 436 091c 38020000 		.word	.L64
 437 0920 38020000 		.word	.L64
 438 0924 38020000 		.word	.L64
 439 0928 38020000 		.word	.L64
 440 092c 38020000 		.word	.L64
 441 0930 38020000 		.word	.L64
 442 0934 38020000 		.word	.L64
 443 0938 38020000 		.word	.L64
 444 093c 38020000 		.word	.L64
 445 0940 38020000 		.word	.L64
 446 0944 38020000 		.word	.L64
 447 0948 38020000 		.word	.L64
 448 094c 38020000 		.word	.L64
 449 0950 38020000 		.word	.L64
 450 0954 38020000 		.word	.L64
 451 0958 38020000 		.word	.L64
 452 095c 38020000 		.word	.L64
 453 0960 38020000 		.word	.L64
 454 0964 38020000 		.word	.L64
 455 0968 38020000 		.word	.L64
 456 096c 38020000 		.word	.L64
 457 0970 38020000 		.word	.L64
 458 0974 38020000 		.word	.L64
 459 0978 38020000 		.word	.L64
 460 097c 38020000 		.word	.L64
 461 0980 38020000 		.word	.L64
 462 0984 38020000 		.word	.L64
 463 0988 38020000 		.word	.L64
 464 098c 38020000 		.word	.L64
 465 0990 38020000 		.word	.L64
 466 0994 38020000 		.word	.L64
 467 0998 38020000 		.word	.L64
 468 099c 38020000 		.word	.L64
 469 09a0 38020000 		.word	.L64
 470 09a4 38020000 		.word	.L64
 471 09a8 38020000 		.word	.L64
 472 09ac 38020000 		.word	.L64
 473 09b0 38020000 		.word	.L64
 474 09b4 38020000 		.word	.L64
 475 09b8 38020000 		.word	.L64
 476 09bc 38020000 		.word	.L64
 477 09c0 38020000 		.word	.L64
 478 09c4 38020000 		.word	.L64
 479 09c8 38020000 		.word	.L64
 480 09cc 38020000 		.word	.L64
 481 09d0 38020000 		.word	.L64
 482 09d4 38020000 		.word	.L64
 483 09d8 38020000 		.word	.L64
 484 09dc 38020000 		.word	.L64
 485 09e0 38020000 		.word	.L64
 486 09e4 38020000 		.word	.L64
 487 09e8 38020000 		.word	.L64
 488 09ec 38020000 		.word	.L64
ARM GAS  C:\Users\run1009\AppData\Local\Temp\ccbk8P2e.s 			page 16


 489 09f0 38020000 		.word	.L64
 490 09f4 38020000 		.word	.L64
 491 09f8 38020000 		.word	.L64
 492 09fc 38020000 		.word	.L64
 493 0a00 38020000 		.word	.L64
 494 0a04 38020000 		.word	.L64
 495 0a08 38020000 		.word	.L64
 496 0a0c 38020000 		.word	.L64
 497 0a10 38020000 		.word	.L64
 498 0a14 38020000 		.word	.L64
 499 0a18 38020000 		.word	.L64
 500 0a1c 38020000 		.word	.L64
 501 0a20 38020000 		.word	.L64
 502 0a24 38020000 		.word	.L64
 503 0a28 38020000 		.word	.L64
 504 0a2c 38020000 		.word	.L64
 505 0a30 38020000 		.word	.L64
 506 0a34 38020000 		.word	.L64
 507 0a38 38020000 		.word	.L64
 508 0a3c 38020000 		.word	.L64
 509 0a40 38020000 		.word	.L64
 510 0a44 38020000 		.word	.L64
 511 0a48 38020000 		.word	.L64
 512 0a4c 38020000 		.word	.L64
 513 0a50 38020000 		.word	.L64
 514 0a54 38020000 		.word	.L64
 515 0a58 38020000 		.word	.L64
 516 0a5c 38020000 		.word	.L64
 517 0a60 38020000 		.word	.L64
 518 0a64 38020000 		.word	.L64
 519 0a68 38020000 		.word	.L64
 520 0a6c 38020000 		.word	.L64
 521 0a70 38020000 		.word	.L64
 522 0a74 38020000 		.word	.L64
 523 0a78 38020000 		.word	.L64
 524 0a7c 38020000 		.word	.L64
 525 0a80 38020000 		.word	.L64
 526 0a84 38020000 		.word	.L64
 527 0a88 38020000 		.word	.L64
 528 0a8c 38020000 		.word	.L64
 529 0a90 38020000 		.word	.L64
 530 0a94 38020000 		.word	.L64
 531 0a98 38020000 		.word	.L64
 532 0a9c 38020000 		.word	.L64
 533 0aa0 38020000 		.word	.L64
 534 0aa4 38020000 		.word	.L64
 535 0aa8 38020000 		.word	.L64
 536 0aac 38020000 		.word	.L64
 537 0ab0 38020000 		.word	.L64
 538 0ab4 38020000 		.word	.L64
 539 0ab8 38020000 		.word	.L64
 540 0abc 38020000 		.word	.L64
 541 0ac0 38020000 		.word	.L64
 542 0ac4 38020000 		.word	.L64
 543 0ac8 38020000 		.word	.L64
 544 0acc 38020000 		.word	.L64
 545 0ad0 38020000 		.word	.L64
ARM GAS  C:\Users\run1009\AppData\Local\Temp\ccbk8P2e.s 			page 17


 546 0ad4 38020000 		.word	.L64
 547 0ad8 38020000 		.word	.L64
 548 0adc 38020000 		.word	.L64
 549 0ae0 38020000 		.word	.L64
 550 0ae4 38020000 		.word	.L64
 551 0ae8 38020000 		.word	.L64
 552 0aec 38020000 		.word	.L64
 553 0af0 38020000 		.word	.L64
 554 0af4 38020000 		.word	.L64
 555 0af8 38020000 		.word	.L64
 556 0afc 38020000 		.word	.L64
 557 0b00 38020000 		.word	.L64
 558 0b04 38020000 		.word	.L64
 559 0b08 38020000 		.word	.L64
 560 0b0c 38020000 		.word	.L64
 561 0b10 38020000 		.word	.L64
 562 0b14 24020000 		.word	.L61
 563 0b18 38020000 		.word	.L64
 564 0b1c 38020000 		.word	.L64
 565 0b20 38020000 		.word	.L64
 566 0b24 38020000 		.word	.L64
 567 0b28 2E020000 		.word	.L62
 568              		.section	.text.print_event
 569              	.L8:
 151:debug.c       **** 	{
 152:debug.c       **** 		case CYBLE_EVT_HOST_INVALID :
 153:debug.c       **** 			printf("CYBLE_EVT_HOST_INVALID \r\n");
 570              		.loc 1 153 0
 571 001c 8A4B     		ldr	r3, .L65+4
 572 001e 1800     		movs	r0, r3
 573 0020 FFF7FEFF 		bl	puts
 154:debug.c       **** 			break;
 574              		.loc 1 154 0
 575 0024 09E1     		b	.L63
 576              	.L10:
 155:debug.c       **** 		
 156:debug.c       **** 		case CYBLE_EVT_STACK_ON :
 157:debug.c       **** 			printf("CYBLE_EVT_STACK_ON \r\n");
 577              		.loc 1 157 0
 578 0026 894B     		ldr	r3, .L65+8
 579 0028 1800     		movs	r0, r3
 580 002a FFF7FEFF 		bl	puts
 158:debug.c       **** 			break;	
 581              		.loc 1 158 0
 582 002e 04E1     		b	.L63
 583              	.L11:
 159:debug.c       **** 		case CYBLE_EVT_TIMEOUT :
 160:debug.c       **** 			printf("CYBLE_EVT_TIMEOUT \r\n");
 584              		.loc 1 160 0
 585 0030 874B     		ldr	r3, .L65+12
 586 0032 1800     		movs	r0, r3
 587 0034 FFF7FEFF 		bl	puts
 161:debug.c       **** 			break;	
 588              		.loc 1 161 0
 589 0038 FFE0     		b	.L63
 590              	.L12:
 162:debug.c       **** 		case CYBLE_EVT_HARDWARE_ERROR :
ARM GAS  C:\Users\run1009\AppData\Local\Temp\ccbk8P2e.s 			page 18


 163:debug.c       **** 			printf("CYBLE_EVT_HARDWARE_ERROR \r\n");
 591              		.loc 1 163 0
 592 003a 864B     		ldr	r3, .L65+16
 593 003c 1800     		movs	r0, r3
 594 003e FFF7FEFF 		bl	puts
 164:debug.c       **** 			break;				
 595              		.loc 1 164 0
 596 0042 FAE0     		b	.L63
 597              	.L13:
 165:debug.c       **** 		case CYBLE_EVT_HCI_STATUS :
 166:debug.c       **** 			printf("CYBLE_EVT_HCI_STATUS \r\n");
 598              		.loc 1 166 0
 599 0044 844B     		ldr	r3, .L65+20
 600 0046 1800     		movs	r0, r3
 601 0048 FFF7FEFF 		bl	puts
 167:debug.c       **** 			break;				
 602              		.loc 1 167 0
 603 004c F5E0     		b	.L63
 604              	.L14:
 168:debug.c       **** 		case CYBLE_EVT_STACK_BUSY_STATUS :
 169:debug.c       **** 			printf("CYBLE_EVT_STACK_BUSY_STATUS \r\n");
 605              		.loc 1 169 0
 606 004e 834B     		ldr	r3, .L65+24
 607 0050 1800     		movs	r0, r3
 608 0052 FFF7FEFF 		bl	puts
 170:debug.c       **** 			break;				
 609              		.loc 1 170 0
 610 0056 F0E0     		b	.L63
 611              	.L15:
 171:debug.c       **** 		case CYBLE_EVT_GAPC_SCAN_PROGRESS_RESULT :
 172:debug.c       **** 			printf("CYBLE_EVT_GAPC_SCAN_PROGRESS_RESULT \r\n");
 612              		.loc 1 172 0
 613 0058 814B     		ldr	r3, .L65+28
 614 005a 1800     		movs	r0, r3
 615 005c FFF7FEFF 		bl	puts
 173:debug.c       **** 			break;				
 616              		.loc 1 173 0
 617 0060 EBE0     		b	.L63
 618              	.L16:
 174:debug.c       **** 		case CYBLE_EVT_GAP_AUTH_REQ :
 175:debug.c       **** 			printf("CYBLE_EVT_GAP_AUTH_REQ \r\n");
 619              		.loc 1 175 0
 620 0062 804B     		ldr	r3, .L65+32
 621 0064 1800     		movs	r0, r3
 622 0066 FFF7FEFF 		bl	puts
 176:debug.c       **** 			break;				
 623              		.loc 1 176 0
 624 006a E6E0     		b	.L63
 625              	.L17:
 177:debug.c       **** 		case CYBLE_EVT_GAP_PASSKEY_ENTRY_REQUEST :
 178:debug.c       **** 			printf("CYBLE_EVT_GAP_PASSKEY_ENTRY_REQUEST \r\n");
 626              		.loc 1 178 0
 627 006c 7E4B     		ldr	r3, .L65+36
 628 006e 1800     		movs	r0, r3
 629 0070 FFF7FEFF 		bl	puts
 179:debug.c       **** 			break;				
 630              		.loc 1 179 0
ARM GAS  C:\Users\run1009\AppData\Local\Temp\ccbk8P2e.s 			page 19


 631 0074 E1E0     		b	.L63
 632              	.L18:
 180:debug.c       **** 		case CYBLE_EVT_GAP_PASSKEY_DISPLAY_REQUEST :
 181:debug.c       **** 			printf("CYBLE_EVT_GAP_PASSKEY_DISPLAY_REQUEST \r\n");
 633              		.loc 1 181 0
 634 0076 7D4B     		ldr	r3, .L65+40
 635 0078 1800     		movs	r0, r3
 636 007a FFF7FEFF 		bl	puts
 182:debug.c       **** 			break;				
 637              		.loc 1 182 0
 638 007e DCE0     		b	.L63
 639              	.L19:
 183:debug.c       **** 		case CYBLE_EVT_GAP_AUTH_COMPLETE :
 184:debug.c       **** 			printf("CYBLE_EVT_GAP_AUTH_COMPLETE \r\n");
 640              		.loc 1 184 0
 641 0080 7B4B     		ldr	r3, .L65+44
 642 0082 1800     		movs	r0, r3
 643 0084 FFF7FEFF 		bl	puts
 185:debug.c       **** 			break;				
 644              		.loc 1 185 0
 645 0088 D7E0     		b	.L63
 646              	.L20:
 186:debug.c       **** 		case CYBLE_EVT_GAP_AUTH_FAILED :
 187:debug.c       **** 			printf("CYBLE_EVT_GAP_AUTH_FAILED \r\n");
 647              		.loc 1 187 0
 648 008a 7A4B     		ldr	r3, .L65+48
 649 008c 1800     		movs	r0, r3
 650 008e FFF7FEFF 		bl	puts
 188:debug.c       **** 			break;				
 651              		.loc 1 188 0
 652 0092 D2E0     		b	.L63
 653              	.L21:
 189:debug.c       **** 		case CYBLE_EVT_GAPP_ADVERTISEMENT_START_STOP :
 190:debug.c       **** 			printf("CYBLE_EVT_GAPP_ADVERTISEMENT_START_STOP \r\n");
 654              		.loc 1 190 0
 655 0094 784B     		ldr	r3, .L65+52
 656 0096 1800     		movs	r0, r3
 657 0098 FFF7FEFF 		bl	puts
 191:debug.c       **** 			break;				
 658              		.loc 1 191 0
 659 009c CDE0     		b	.L63
 660              	.L22:
 192:debug.c       **** 		case CYBLE_EVT_GAP_DEVICE_CONNECTED :
 193:debug.c       **** 			printf("CYBLE_EVT_GAP_DEVICE_CONNECTED \r\n");
 661              		.loc 1 193 0
 662 009e 774B     		ldr	r3, .L65+56
 663 00a0 1800     		movs	r0, r3
 664 00a2 FFF7FEFF 		bl	puts
 194:debug.c       **** 			break;				
 665              		.loc 1 194 0
 666 00a6 C8E0     		b	.L63
 667              	.L23:
 195:debug.c       **** 		case CYBLE_EVT_GAP_DEVICE_DISCONNECTED :
 196:debug.c       **** 			printf("CYBLE_EVT_GAP_DEVICE_DISCONNECTED \r\n");
 668              		.loc 1 196 0
 669 00a8 754B     		ldr	r3, .L65+60
 670 00aa 1800     		movs	r0, r3
ARM GAS  C:\Users\run1009\AppData\Local\Temp\ccbk8P2e.s 			page 20


 671 00ac FFF7FEFF 		bl	puts
 197:debug.c       **** 			break;				
 672              		.loc 1 197 0
 673 00b0 C3E0     		b	.L63
 674              	.L24:
 198:debug.c       **** 		case CYBLE_EVT_GAP_ENCRYPT_CHANGE :
 199:debug.c       **** 			printf("CYBLE_EVT_GAP_ENCRYPT_CHANGE \r\n");
 675              		.loc 1 199 0
 676 00b2 744B     		ldr	r3, .L65+64
 677 00b4 1800     		movs	r0, r3
 678 00b6 FFF7FEFF 		bl	puts
 200:debug.c       **** 			break;				
 679              		.loc 1 200 0
 680 00ba BEE0     		b	.L63
 681              	.L25:
 201:debug.c       **** 		case CYBLE_EVT_GAP_CONNECTION_UPDATE_COMPLETE :
 202:debug.c       **** 			printf("CYBLE_EVT_GAP_CONNECTION_UPDATE_COMPLETE \r\n");
 682              		.loc 1 202 0
 683 00bc 724B     		ldr	r3, .L65+68
 684 00be 1800     		movs	r0, r3
 685 00c0 FFF7FEFF 		bl	puts
 203:debug.c       **** 			break;				
 686              		.loc 1 203 0
 687 00c4 B9E0     		b	.L63
 688              	.L26:
 204:debug.c       **** 		case CYBLE_EVT_GAPC_SCAN_START_STOP :
 205:debug.c       **** 			printf("CYBLE_EVT_GAPC_SCAN_START_STOP \r\n");
 689              		.loc 1 205 0
 690 00c6 714B     		ldr	r3, .L65+72
 691 00c8 1800     		movs	r0, r3
 692 00ca FFF7FEFF 		bl	puts
 206:debug.c       **** 			break;				
 693              		.loc 1 206 0
 694 00ce B4E0     		b	.L63
 695              	.L27:
 207:debug.c       **** 		case CYBLE_EVT_GAP_KEYINFO_EXCHNGE_CMPLT :
 208:debug.c       **** 			printf("CYBLE_EVT_GAP_KEYINFO_EXCHNGE_CMPLT \r\n");
 696              		.loc 1 208 0
 697 00d0 6F4B     		ldr	r3, .L65+76
 698 00d2 1800     		movs	r0, r3
 699 00d4 FFF7FEFF 		bl	puts
 209:debug.c       **** 			break;				
 700              		.loc 1 209 0
 701 00d8 AFE0     		b	.L63
 702              	.L28:
 210:debug.c       **** 		case CYBLE_EVT_GATTC_ERROR_RSP :
 211:debug.c       **** 			printf("CYBLE_EVT_GATTC_ERROR_RSP \r\n");
 703              		.loc 1 211 0
 704 00da 6E4B     		ldr	r3, .L65+80
 705 00dc 1800     		movs	r0, r3
 706 00de FFF7FEFF 		bl	puts
 212:debug.c       **** 			break;				
 707              		.loc 1 212 0
 708 00e2 AAE0     		b	.L63
 709              	.L29:
 213:debug.c       **** 		case CYBLE_EVT_GATT_CONNECT_IND :
 214:debug.c       **** 			printf("CYBLE_EVT_GATT_CONNECT_IND \r\n");
ARM GAS  C:\Users\run1009\AppData\Local\Temp\ccbk8P2e.s 			page 21


 710              		.loc 1 214 0
 711 00e4 6C4B     		ldr	r3, .L65+84
 712 00e6 1800     		movs	r0, r3
 713 00e8 FFF7FEFF 		bl	puts
 215:debug.c       **** 			break;				
 714              		.loc 1 215 0
 715 00ec A5E0     		b	.L63
 716              	.L30:
 216:debug.c       **** 		case CYBLE_EVT_GATT_DISCONNECT_IND :
 217:debug.c       **** 			printf("CYBLE_EVT_GATT_DISCONNECT_IND \r\n");
 717              		.loc 1 217 0
 718 00ee 6B4B     		ldr	r3, .L65+88
 719 00f0 1800     		movs	r0, r3
 720 00f2 FFF7FEFF 		bl	puts
 218:debug.c       **** 			break;				
 721              		.loc 1 218 0
 722 00f6 A0E0     		b	.L63
 723              	.L31:
 219:debug.c       **** 		case CYBLE_EVT_GATTS_XCNHG_MTU_REQ :
 220:debug.c       **** 			printf("CYBLE_EVT_GATTS_XCNHG_MTU_REQ \r\n");
 724              		.loc 1 220 0
 725 00f8 694B     		ldr	r3, .L65+92
 726 00fa 1800     		movs	r0, r3
 727 00fc FFF7FEFF 		bl	puts
 221:debug.c       **** 			break;				
 728              		.loc 1 221 0
 729 0100 9BE0     		b	.L63
 730              	.L32:
 222:debug.c       **** 		case CYBLE_EVT_GATTC_XCHNG_MTU_RSP :
 223:debug.c       **** 			printf("CYBLE_EVT_GATTC_XCHNG_MTU_RSP \r\n");
 731              		.loc 1 223 0
 732 0102 684B     		ldr	r3, .L65+96
 733 0104 1800     		movs	r0, r3
 734 0106 FFF7FEFF 		bl	puts
 224:debug.c       **** 			break;				
 735              		.loc 1 224 0
 736 010a 96E0     		b	.L63
 737              	.L33:
 225:debug.c       **** 		case CYBLE_EVT_GATTC_READ_BY_GROUP_TYPE_RSP :
 226:debug.c       **** 			printf("CYBLE_EVT_GATTC_READ_BY_GROUP_TYPE_RSP \r\n");
 738              		.loc 1 226 0
 739 010c 664B     		ldr	r3, .L65+100
 740 010e 1800     		movs	r0, r3
 741 0110 FFF7FEFF 		bl	puts
 227:debug.c       **** 			break;				
 742              		.loc 1 227 0
 743 0114 91E0     		b	.L63
 744              	.L34:
 228:debug.c       **** 		case CYBLE_EVT_GATTC_READ_BY_TYPE_RSP :
 229:debug.c       **** 			printf("CYBLE_EVT_GATTC_READ_BY_TYPE_RSP \r\n");
 745              		.loc 1 229 0
 746 0116 654B     		ldr	r3, .L65+104
 747 0118 1800     		movs	r0, r3
 748 011a FFF7FEFF 		bl	puts
 230:debug.c       **** 			break;				
 749              		.loc 1 230 0
 750 011e 8CE0     		b	.L63
ARM GAS  C:\Users\run1009\AppData\Local\Temp\ccbk8P2e.s 			page 22


 751              	.L35:
 231:debug.c       **** 		case CYBLE_EVT_GATTC_FIND_INFO_RSP :
 232:debug.c       **** 			printf("CYBLE_EVT_GATTC_FIND_INFO_RSP \r\n");
 752              		.loc 1 232 0
 753 0120 634B     		ldr	r3, .L65+108
 754 0122 1800     		movs	r0, r3
 755 0124 FFF7FEFF 		bl	puts
 233:debug.c       **** 			break;				
 756              		.loc 1 233 0
 757 0128 87E0     		b	.L63
 758              	.L36:
 234:debug.c       **** 		case CYBLE_EVT_GATTC_FIND_BY_TYPE_VALUE_RSP :
 235:debug.c       **** 			printf("CYBLE_EVT_GATTC_FIND_BY_TYPE_VALUE_RSP \r\n");
 759              		.loc 1 235 0
 760 012a 624B     		ldr	r3, .L65+112
 761 012c 1800     		movs	r0, r3
 762 012e FFF7FEFF 		bl	puts
 236:debug.c       **** 			break;				
 763              		.loc 1 236 0
 764 0132 82E0     		b	.L63
 765              	.L37:
 237:debug.c       **** 		case CYBLE_EVT_GATTC_READ_RSP :
 238:debug.c       **** 			printf("CYBLE_EVT_GATTC_READ_RSP \r\n");
 766              		.loc 1 238 0
 767 0134 604B     		ldr	r3, .L65+116
 768 0136 1800     		movs	r0, r3
 769 0138 FFF7FEFF 		bl	puts
 239:debug.c       **** 			break;				
 770              		.loc 1 239 0
 771 013c 7DE0     		b	.L63
 772              	.L38:
 240:debug.c       **** 		case CYBLE_EVT_GATTC_READ_BLOB_RSP :
 241:debug.c       **** 			printf("CYBLE_EVT_GATTC_READ_BLOB_RSP \r\n");
 773              		.loc 1 241 0
 774 013e 5F4B     		ldr	r3, .L65+120
 775 0140 1800     		movs	r0, r3
 776 0142 FFF7FEFF 		bl	puts
 242:debug.c       **** 			break;				
 777              		.loc 1 242 0
 778 0146 78E0     		b	.L63
 779              	.L39:
 243:debug.c       **** 		case CYBLE_EVT_GATTC_READ_MULTI_RSP :
 244:debug.c       **** 			printf("CYBLE_EVT_GATTC_READ_MULTI_RSP \r\n");
 780              		.loc 1 244 0
 781 0148 5D4B     		ldr	r3, .L65+124
 782 014a 1800     		movs	r0, r3
 783 014c FFF7FEFF 		bl	puts
 245:debug.c       **** 			break;				
 784              		.loc 1 245 0
 785 0150 73E0     		b	.L63
 786              	.L40:
 246:debug.c       **** 		case CYBLE_EVT_GATTS_WRITE_REQ :
 247:debug.c       **** 			printf("CYBLE_EVT_GATTS_WRITE_REQ \r\n");
 787              		.loc 1 247 0
 788 0152 5C4B     		ldr	r3, .L65+128
 789 0154 1800     		movs	r0, r3
 790 0156 FFF7FEFF 		bl	puts
ARM GAS  C:\Users\run1009\AppData\Local\Temp\ccbk8P2e.s 			page 23


 248:debug.c       **** 			break;				
 791              		.loc 1 248 0
 792 015a 6EE0     		b	.L63
 793              	.L41:
 249:debug.c       **** 		case CYBLE_EVT_GATTC_WRITE_RSP :
 250:debug.c       **** 			printf("CYBLE_EVT_GATTC_WRITE_RSP \r\n");
 794              		.loc 1 250 0
 795 015c 5A4B     		ldr	r3, .L65+132
 796 015e 1800     		movs	r0, r3
 797 0160 FFF7FEFF 		bl	puts
 251:debug.c       **** 			break;				
 798              		.loc 1 251 0
 799 0164 69E0     		b	.L63
 800              	.L42:
 252:debug.c       **** 		case CYBLE_EVT_GATTS_WRITE_CMD_REQ :
 253:debug.c       **** 			printf("CYBLE_EVT_GATTS_WRITE_CMD_REQ \r\n");
 801              		.loc 1 253 0
 802 0166 594B     		ldr	r3, .L65+136
 803 0168 1800     		movs	r0, r3
 804 016a FFF7FEFF 		bl	puts
 254:debug.c       **** 			break;				
 805              		.loc 1 254 0
 806 016e 64E0     		b	.L63
 807              	.L43:
 255:debug.c       **** 		case CYBLE_EVT_GATTS_PREP_WRITE_REQ :
 256:debug.c       **** 			printf("CYBLE_EVT_GATTS_PREP_WRITE_REQ \r\n");
 808              		.loc 1 256 0
 809 0170 574B     		ldr	r3, .L65+140
 810 0172 1800     		movs	r0, r3
 811 0174 FFF7FEFF 		bl	puts
 257:debug.c       **** 			break;				
 812              		.loc 1 257 0
 813 0178 5FE0     		b	.L63
 814              	.L44:
 258:debug.c       **** 		case CYBLE_EVT_GATTS_EXEC_WRITE_REQ :
 259:debug.c       **** 			printf("CYBLE_EVT_GATTS_EXEC_WRITE_REQ \r\n");
 815              		.loc 1 259 0
 816 017a 564B     		ldr	r3, .L65+144
 817 017c 1800     		movs	r0, r3
 818 017e FFF7FEFF 		bl	puts
 260:debug.c       **** 			break;				
 819              		.loc 1 260 0
 820 0182 5AE0     		b	.L63
 821              	.L45:
 261:debug.c       **** 		case CYBLE_EVT_GATTC_EXEC_WRITE_RSP :
 262:debug.c       **** 			printf("CYBLE_EVT_GATTC_EXEC_WRITE_RSP \r\n");
 822              		.loc 1 262 0
 823 0184 544B     		ldr	r3, .L65+148
 824 0186 1800     		movs	r0, r3
 825 0188 FFF7FEFF 		bl	puts
 263:debug.c       **** 			break;				
 826              		.loc 1 263 0
 827 018c 55E0     		b	.L63
 828              	.L46:
 264:debug.c       **** 		case CYBLE_EVT_GATTC_HANDLE_VALUE_NTF :
 265:debug.c       **** 			printf("CYBLE_EVT_GATTC_HANDLE_VALUE_NTF \r\n");
 829              		.loc 1 265 0
ARM GAS  C:\Users\run1009\AppData\Local\Temp\ccbk8P2e.s 			page 24


 830 018e 534B     		ldr	r3, .L65+152
 831 0190 1800     		movs	r0, r3
 832 0192 FFF7FEFF 		bl	puts
 266:debug.c       **** 			break;				
 833              		.loc 1 266 0
 834 0196 50E0     		b	.L63
 835              	.L47:
 267:debug.c       **** 		case CYBLE_EVT_GATTC_HANDLE_VALUE_IND :
 268:debug.c       **** 			printf("CYBLE_EVT_GATTC_HANDLE_VALUE_IND \r\n");
 836              		.loc 1 268 0
 837 0198 514B     		ldr	r3, .L65+156
 838 019a 1800     		movs	r0, r3
 839 019c FFF7FEFF 		bl	puts
 269:debug.c       **** 			break;				
 840              		.loc 1 269 0
 841 01a0 4BE0     		b	.L63
 842              	.L48:
 270:debug.c       **** 		case CYBLE_EVT_GATTS_HANDLE_VALUE_CNF :
 271:debug.c       **** 			printf("CYBLE_EVT_GATTS_HANDLE_VALUE_CNF \r\n");
 843              		.loc 1 271 0
 844 01a2 504B     		ldr	r3, .L65+160
 845 01a4 1800     		movs	r0, r3
 846 01a6 FFF7FEFF 		bl	puts
 272:debug.c       **** 			break;				
 847              		.loc 1 272 0
 848 01aa 46E0     		b	.L63
 849              	.L49:
 273:debug.c       **** 		case CYBLE_EVT_GATTS_DATA_SIGNED_CMD_REQ :
 274:debug.c       **** 			printf("CYBLE_EVT_GATTS_DATA_SIGNED_CMD_REQ \r\n");
 850              		.loc 1 274 0
 851 01ac 4E4B     		ldr	r3, .L65+164
 852 01ae 1800     		movs	r0, r3
 853 01b0 FFF7FEFF 		bl	puts
 275:debug.c       **** 			break;				
 854              		.loc 1 275 0
 855 01b4 41E0     		b	.L63
 856              	.L50:
 276:debug.c       **** 		case CYBLE_EVT_L2CAP_CONN_PARAM_UPDATE_REQ :
 277:debug.c       **** 			printf("CYBLE_EVT_L2CAP_CONN_PARAM_UPDATE_REQ \r\n");
 857              		.loc 1 277 0
 858 01b6 4D4B     		ldr	r3, .L65+168
 859 01b8 1800     		movs	r0, r3
 860 01ba FFF7FEFF 		bl	puts
 278:debug.c       **** 			break;				
 861              		.loc 1 278 0
 862 01be 3CE0     		b	.L63
 863              	.L51:
 279:debug.c       **** 		case CYBLE_EVT_L2CAP_CONN_PARAM_UPDATE_RSP :
 280:debug.c       **** 			printf("CYBLE_EVT_L2CAP_CONN_PARAM_UPDATE_RSP \r\n");
 864              		.loc 1 280 0
 865 01c0 4B4B     		ldr	r3, .L65+172
 866 01c2 1800     		movs	r0, r3
 867 01c4 FFF7FEFF 		bl	puts
 281:debug.c       **** 			break;				
 868              		.loc 1 281 0
 869 01c8 37E0     		b	.L63
 870              	.L52:
ARM GAS  C:\Users\run1009\AppData\Local\Temp\ccbk8P2e.s 			page 25


 282:debug.c       **** 		case CYBLE_EVT_L2CAP_COMMAND_REJ :
 283:debug.c       **** 			printf("CYBLE_EVT_L2CAP_COMMAND_REJ \r\n");
 871              		.loc 1 283 0
 872 01ca 4A4B     		ldr	r3, .L65+176
 873 01cc 1800     		movs	r0, r3
 874 01ce FFF7FEFF 		bl	puts
 284:debug.c       **** 			break;				
 875              		.loc 1 284 0
 876 01d2 32E0     		b	.L63
 877              	.L53:
 285:debug.c       **** 		case CYBLE_EVT_L2CAP_CBFC_CONN_IND :
 286:debug.c       **** 			printf("CYBLE_EVT_L2CAP_CBFC_CONN_IND \r\n");
 878              		.loc 1 286 0
 879 01d4 484B     		ldr	r3, .L65+180
 880 01d6 1800     		movs	r0, r3
 881 01d8 FFF7FEFF 		bl	puts
 287:debug.c       **** 			break;				
 882              		.loc 1 287 0
 883 01dc 2DE0     		b	.L63
 884              	.L54:
 288:debug.c       **** 		case CYBLE_EVT_L2CAP_CBFC_CONN_CNF :
 289:debug.c       **** 			printf("CYBLE_EVT_L2CAP_CBFC_CONN_CNF \r\n");
 885              		.loc 1 289 0
 886 01de 474B     		ldr	r3, .L65+184
 887 01e0 1800     		movs	r0, r3
 888 01e2 FFF7FEFF 		bl	puts
 290:debug.c       **** 			break;				
 889              		.loc 1 290 0
 890 01e6 28E0     		b	.L63
 891              	.L55:
 291:debug.c       **** 		case CYBLE_EVT_L2CAP_CBFC_DISCONN_IND :
 292:debug.c       **** 			printf("CYBLE_EVT_L2CAP_CBFC_DISCONN_IND \r\n");
 892              		.loc 1 292 0
 893 01e8 454B     		ldr	r3, .L65+188
 894 01ea 1800     		movs	r0, r3
 895 01ec FFF7FEFF 		bl	puts
 293:debug.c       **** 			break;				
 896              		.loc 1 293 0
 897 01f0 23E0     		b	.L63
 898              	.L56:
 294:debug.c       **** 		case CYBLE_EVT_L2CAP_CBFC_DISCONN_CNF :
 295:debug.c       **** 			printf("CYBLE_EVT_L2CAP_CBFC_DISCONN_CNF \r\n");
 899              		.loc 1 295 0
 900 01f2 444B     		ldr	r3, .L65+192
 901 01f4 1800     		movs	r0, r3
 902 01f6 FFF7FEFF 		bl	puts
 296:debug.c       **** 			break;				
 903              		.loc 1 296 0
 904 01fa 1EE0     		b	.L63
 905              	.L57:
 297:debug.c       **** 		case CYBLE_EVT_L2CAP_CBFC_DATA_READ :
 298:debug.c       **** 			printf("CYBLE_EVT_L2CAP_CBFC_DATA_READ \r\n");
 906              		.loc 1 298 0
 907 01fc 424B     		ldr	r3, .L65+196
 908 01fe 1800     		movs	r0, r3
 909 0200 FFF7FEFF 		bl	puts
 299:debug.c       **** 			break;				
ARM GAS  C:\Users\run1009\AppData\Local\Temp\ccbk8P2e.s 			page 26


 910              		.loc 1 299 0
 911 0204 19E0     		b	.L63
 912              	.L58:
 300:debug.c       **** 		case CYBLE_EVT_L2CAP_CBFC_RX_CREDIT_IND :
 301:debug.c       **** 			printf("CYBLE_EVT_L2CAP_CBFC_RX_CREDIT_IND \r\n");
 913              		.loc 1 301 0
 914 0206 414B     		ldr	r3, .L65+200
 915 0208 1800     		movs	r0, r3
 916 020a FFF7FEFF 		bl	puts
 302:debug.c       **** 			break;				
 917              		.loc 1 302 0
 918 020e 14E0     		b	.L63
 919              	.L59:
 303:debug.c       **** 		case CYBLE_EVT_L2CAP_CBFC_TX_CREDIT_IND :
 304:debug.c       **** 			printf("CYBLE_EVT_L2CAP_CBFC_TX_CREDIT_IND \r\n");
 920              		.loc 1 304 0
 921 0210 3F4B     		ldr	r3, .L65+204
 922 0212 1800     		movs	r0, r3
 923 0214 FFF7FEFF 		bl	puts
 305:debug.c       **** 			break;				
 924              		.loc 1 305 0
 925 0218 0FE0     		b	.L63
 926              	.L60:
 306:debug.c       **** 		case CYBLE_EVT_L2CAP_CBFC_DATA_WRITE_IND :
 307:debug.c       **** 			printf("CYBLE_EVT_L2CAP_CBFC_DATA_WRITE_IND \r\n");
 927              		.loc 1 307 0
 928 021a 3E4B     		ldr	r3, .L65+208
 929 021c 1800     		movs	r0, r3
 930 021e FFF7FEFF 		bl	puts
 308:debug.c       **** 			break;				
 931              		.loc 1 308 0
 932 0222 0AE0     		b	.L63
 933              	.L61:
 309:debug.c       **** 		case CYBLE_EVT_PENDING_FLASH_WRITE :
 310:debug.c       **** 			printf("CYBLE_EVT_PENDING_FLASH_WRITE \r\n");
 934              		.loc 1 310 0
 935 0224 3C4B     		ldr	r3, .L65+212
 936 0226 1800     		movs	r0, r3
 937 0228 FFF7FEFF 		bl	puts
 311:debug.c       **** 			break;				
 938              		.loc 1 311 0
 939 022c 05E0     		b	.L63
 940              	.L62:
 312:debug.c       **** 		case CYBLE_EVT_MAX :
 313:debug.c       **** 			printf("CYBLE_EVT_MAX \r\n");
 941              		.loc 1 313 0
 942 022e 3B4B     		ldr	r3, .L65+216
 943 0230 1800     		movs	r0, r3
 944 0232 FFF7FEFF 		bl	puts
 314:debug.c       **** 			break;				
 945              		.loc 1 314 0
 946 0236 00E0     		b	.L63
 947              	.L64:
 315:debug.c       **** 			
 316:debug.c       **** 		default:
 317:debug.c       **** 		   break;
 948              		.loc 1 317 0
ARM GAS  C:\Users\run1009\AppData\Local\Temp\ccbk8P2e.s 			page 27


 949 0238 C046     		nop
 950              	.L63:
 318:debug.c       **** 	}
 319:debug.c       **** }
 951              		.loc 1 319 0
 952 023a C046     		nop
 953 023c BD46     		mov	sp, r7
 954 023e 02B0     		add	sp, sp, #8
 955              		@ sp needed
 956 0240 80BD     		pop	{r7, pc}
 957              	.L66:
 958 0242 C046     		.align	2
 959              	.L65:
 960 0244 2C070000 		.word	.L9
 961 0248 00000000 		.word	.LC1
 962 024c 1C000000 		.word	.LC3
 963 0250 34000000 		.word	.LC5
 964 0254 48000000 		.word	.LC7
 965 0258 64000000 		.word	.LC9
 966 025c 7C000000 		.word	.LC11
 967 0260 9C000000 		.word	.LC13
 968 0264 C4000000 		.word	.LC15
 969 0268 E0000000 		.word	.LC17
 970 026c 08010000 		.word	.LC19
 971 0270 30010000 		.word	.LC21
 972 0274 50010000 		.word	.LC23
 973 0278 6C010000 		.word	.LC25
 974 027c 98010000 		.word	.LC27
 975 0280 BC010000 		.word	.LC29
 976 0284 E0010000 		.word	.LC31
 977 0288 00020000 		.word	.LC33
 978 028c 2C020000 		.word	.LC35
 979 0290 50020000 		.word	.LC37
 980 0294 78020000 		.word	.LC39
 981 0298 94020000 		.word	.LC41
 982 029c B4020000 		.word	.LC43
 983 02a0 D4020000 		.word	.LC45
 984 02a4 F4020000 		.word	.LC47
 985 02a8 14030000 		.word	.LC49
 986 02ac 40030000 		.word	.LC51
 987 02b0 64030000 		.word	.LC53
 988 02b4 84030000 		.word	.LC55
 989 02b8 B0030000 		.word	.LC57
 990 02bc CC030000 		.word	.LC59
 991 02c0 EC030000 		.word	.LC61
 992 02c4 10040000 		.word	.LC63
 993 02c8 2C040000 		.word	.LC65
 994 02cc 48040000 		.word	.LC67
 995 02d0 68040000 		.word	.LC69
 996 02d4 8C040000 		.word	.LC71
 997 02d8 B0040000 		.word	.LC73
 998 02dc D4040000 		.word	.LC75
 999 02e0 F8040000 		.word	.LC77
 1000 02e4 1C050000 		.word	.LC79
 1001 02e8 40050000 		.word	.LC81
 1002 02ec 68050000 		.word	.LC83
 1003 02f0 90050000 		.word	.LC85
ARM GAS  C:\Users\run1009\AppData\Local\Temp\ccbk8P2e.s 			page 28


 1004 02f4 B8050000 		.word	.LC87
 1005 02f8 D8050000 		.word	.LC89
 1006 02fc F8050000 		.word	.LC91
 1007 0300 18060000 		.word	.LC93
 1008 0304 3C060000 		.word	.LC95
 1009 0308 60060000 		.word	.LC97
 1010 030c 84060000 		.word	.LC99
 1011 0310 AC060000 		.word	.LC101
 1012 0314 D4060000 		.word	.LC103
 1013 0318 FC060000 		.word	.LC105
 1014 031c 1C070000 		.word	.LC107
 1015              		.cfi_endproc
 1016              	.LFE40:
 1017              		.size	print_event, .-print_event
 1018              		.text
 1019              	.Letext0:
 1020              		.file 2 "Generated_Source\\PSoC4/cytypes.h"
 1021              		.file 3 "Generated_Source\\PSoC4/BLE_Stack.h"