ARM GAS  C:\Users\run1009\AppData\Local\Temp\ccFHjhZC.s 			page 1


   1              		.syntax unified
   2              		.cpu cortex-m0
   3              		.fpu softvfp
   4              		.eabi_attribute 20, 1
   5              		.eabi_attribute 21, 1
   6              		.eabi_attribute 23, 3
   7              		.eabi_attribute 24, 1
   8              		.eabi_attribute 25, 1
   9              		.eabi_attribute 26, 1
  10              		.eabi_attribute 30, 6
  11              		.eabi_attribute 34, 0
  12              		.eabi_attribute 18, 4
  13              		.thumb
  14              		.syntax unified
  15              		.file	"main.c"
  16              		.text
  17              	.Ltext0:
  18              		.cfi_sections	.debug_frame
  19              		.comm	UartRxDataSim,4,4
  20              		.comm	devIndex,1,1
  21              		.comm	Periph_Selected,1,1
  22              		.comm	IsSelected,1,1
  23              		.comm	IsDetected,1,1
  24              		.comm	IsConnected,1,1
  25              		.comm	connHandle,2,4
  26              		.comm	apiResult,2,2
  27              		.section	.rodata
  28              		.align	2
  29              	.LC1:
  30 0000 424C4520 		.ascii	"BLE Central + Observer Example \015\000"
  30      43656E74 
  30      72616C20 
  30      2B204F62 
  30      73657276 
  31              		.section	.text.BLE_Central_Observer_init,"ax",%progbits
  32              		.align	2
  33              		.global	BLE_Central_Observer_init
  34              		.code	16
  35              		.thumb_func
  36              		.type	BLE_Central_Observer_init, %function
  37              	BLE_Central_Observer_init:
  38              	.LFB38:
  39              		.file 1 "main.c"
   1:main.c        **** /******************************************************************************
   2:main.c        **** * Project Name		: BLE_Central_Observer
   3:main.c        **** * File Name			: main.c
   4:main.c        **** * Version 			: 1.0
   5:main.c        **** * Device Used		: CY8C4247LQI-BL483
   6:main.c        **** * Software Used		: PSoC Creator 3.1 CP1
   7:main.c        **** * Compiler    		: ARM GCC 4.8.4, ARM RVDS Generic, ARM MDK Generic
   8:main.c        **** * Owner				: MADY
   9:main.c        **** *
  10:main.c        **** ********************************************************************************
  11:main.c        **** * Copyright (2014-15), Cypress Semiconductor Corporation. All Rights Reserved.
  12:main.c        **** ********************************************************************************
  13:main.c        **** * This software is owned by Cypress Semiconductor Corporation (Cypress)
  14:main.c        **** * and is protected by and subject to worldwide patent protection (United
ARM GAS  C:\Users\run1009\AppData\Local\Temp\ccFHjhZC.s 			page 2


  15:main.c        **** * States and foreign), United States copyright laws and international treaty
  16:main.c        **** * provisions. Cypress hereby grants to licensee a personal, non-exclusive,
  17:main.c        **** * non-transferable license to copy, use, modify, create derivative works of,
  18:main.c        **** * and compile the Cypress Source Code and derivative works for the sole
  19:main.c        **** * purpose of creating custom software in support of licensee product to be
  20:main.c        **** * used only in conjunction with a Cypress integrated circuit as specified in
  21:main.c        **** * the applicable agreement. Any reproduction, modification, translation,
  22:main.c        **** * compilation, or representation of this software except as specified above 
  23:main.c        **** * is prohibited without the express written permission of Cypress.
  24:main.c        **** *
  25:main.c        **** * Disclaimer: CYPRESS MAKES NO WARRANTY OF ANY KIND, EXPRESS OR IMPLIED, WITH 
  26:main.c        **** * REGARD TO THIS MATERIAL, INCLUDING, BUT NOT LIMITED TO, THE IMPLIED 
  27:main.c        **** * WARRANTIES OF MERCHANTABILITY AND FITNESS FOR A PARTICULAR PURPOSE.
  28:main.c        **** * Cypress reserves the right to make changes without further notice to the 
  29:main.c        **** * materials described herein. Cypress does not assume any liability arising out 
  30:main.c        **** * of the application or use of any product or circuit described herein. Cypress 
  31:main.c        **** * does not authorize its products for use as critical components in life-support 
  32:main.c        **** * systems where a malfunction or failure may reasonably be expected to result in 
  33:main.c        **** * significant injury to the user. The inclusion of Cypress' product in a life-
  34:main.c        **** * support systems application implies that the manufacturer assumes all risk of 
  35:main.c        **** * such use and in doing so indemnifies Cypress against all charges. 
  36:main.c        **** *
  37:main.c        **** * Use of this Software may be limited by and subject to the applicable Cypress
  38:main.c        **** * software license agreement. 
  39:main.c        **** *******************************************************************************/
  40:main.c        **** /******************************************************************************
  41:main.c        **** *                           THEORY OF OPERATION
  42:main.c        **** *******************************************************************************
  43:main.c        **** *A BLE Central is a device that initiates connections to Peripherals and will 
  44:main.c        **** *therefore become a master when connected. BLE Observer is one which scans for 
  45:main.c        **** *Broadcasters (devices that send advertising events over BLE) and reports the
  46:main.c        **** *received information to an application. The BLE Observer role does not allow
  47:main.c        **** *transmissions. In this example the BLE Component is configured to work as both 
  48:main.c        **** *a BLE Central and BLE Observer. It keeps scanning for the Peripherals and 
  49:main.c        **** *Broadcasters and displays the information from the Advertisement and Scan 
  50:main.c        **** *response packets received. The user can initiate a connection with any of
  51:main.c        **** *the detected devices any time or disconnect an existing connection. The user 
  52:main.c        **** *enters the input via UART terminal. This example can handle upto 10 peripherals 
  53:main.c        **** *or broadcastres advetising at the same time.
  54:main.c        **** ******************************************************************************/
  55:main.c        **** 
  56:main.c        **** #include <project.h>
  57:main.c        **** #include "stdio.h"
  58:main.c        **** #include "BLE_Central_Observer.h"
  59:main.c        **** #include "main.h"
  60:main.c        **** 
  61:main.c        **** uint32  UartRxDataSim;  // Character Input Received from the UART Terminal for Initiating Connectio
  62:main.c        **** uint8 devIndex;         // Index of the devices detected in Scanning
  63:main.c        **** uint8 Periph_Selected;  // The Index of the Peropheral which the user wants to connect the Central 
  64:main.c        **** uint8 IsSelected;       // Whether user has given Periph_Selected
  65:main.c        **** uint8 IsDetected;       // Whether any device has been detected in Scanning
  66:main.c        **** uint8 IsConnected;      // Whether the Central is in connected state or not.
  67:main.c        **** CYBLE_CONN_HANDLE_T			connHandle; // Handle of the device connected.
  68:main.c        **** CYBLE_API_RESULT_T 		    apiResult;
  69:main.c        **** 
  70:main.c        **** /*******************************************************************************
  71:main.c        **** * Function Name: BLE_Central_Observer_init
ARM GAS  C:\Users\run1009\AppData\Local\Temp\ccFHjhZC.s 			page 3


  72:main.c        **** ********************************************************************************
  73:main.c        **** *
  74:main.c        **** * Summary:
  75:main.c        **** * Starts BLE and UART Components and enables Global Interrupt
  76:main.c        **** *
  77:main.c        **** * Parameters:  
  78:main.c        **** *  None
  79:main.c        **** *
  80:main.c        **** * Return: 
  81:main.c        **** *  None
  82:main.c        **** *
  83:main.c        **** *******************************************************************************/
  84:main.c        **** 
  85:main.c        **** void BLE_Central_Observer_init(void)
  86:main.c        **** {
  40              		.loc 1 86 0
  41              		.cfi_startproc
  42              		@ args = 0, pretend = 0, frame = 0
  43              		@ frame_needed = 1, uses_anonymous_args = 0
  44 0000 80B5     		push	{r7, lr}
  45              		.cfi_def_cfa_offset 8
  46              		.cfi_offset 7, -8
  47              		.cfi_offset 14, -4
  48 0002 00AF     		add	r7, sp, #0
  49              		.cfi_def_cfa_register 7
  87:main.c        **** 	ALL_LED_OFF();
  50              		.loc 1 87 0
  51 0004 0120     		movs	r0, #1
  52 0006 FFF7FEFF 		bl	RED_LED_Write
  53 000a 0120     		movs	r0, #1
  54 000c FFF7FEFF 		bl	GREEN_LED_Write
  55 0010 0120     		movs	r0, #1
  56 0012 FFF7FEFF 		bl	BLUE_LED_Write
  88:main.c        ****     
  89:main.c        **** 	CyGlobalIntEnable; /* Enabling Global interrupts */
  57              		.loc 1 89 0
  58              		.syntax divided
  59              	@ 89 "main.c" 1
  60 0016 62B6     		CPSIE   i
  61              	@ 0 "" 2
  90:main.c        ****     
  91:main.c        ****     /* Start BLE component and register Event handler function */
  92:main.c        **** 	CyBle_Start (StackEventHandler);	
  62              		.loc 1 92 0
  63              		.thumb
  64              		.syntax unified
  65 0018 064B     		ldr	r3, .L2
  66 001a 1800     		movs	r0, r3
  67 001c FFF7FEFF 		bl	CyBle_Start
  93:main.c        **** 	
  94:main.c        **** 	/* Start UART Component which is used for receiving inputs and Debugging */
  95:main.c        ****     UART_Start();
  68              		.loc 1 95 0
  69 0020 FFF7FEFF 		bl	UART_Start
  96:main.c        **** 	printf("BLE Central + Observer Example \r\n");
  70              		.loc 1 96 0
  71 0024 044B     		ldr	r3, .L2+4
ARM GAS  C:\Users\run1009\AppData\Local\Temp\ccFHjhZC.s 			page 4


  72 0026 1800     		movs	r0, r3
  73 0028 FFF7FEFF 		bl	puts
  97:main.c        **** 	
  98:main.c        **** }
  74              		.loc 1 98 0
  75 002c C046     		nop
  76 002e BD46     		mov	sp, r7
  77              		@ sp needed
  78 0030 80BD     		pop	{r7, pc}
  79              	.L3:
  80 0032 C046     		.align	2
  81              	.L2:
  82 0034 00000000 		.word	StackEventHandler
  83 0038 00000000 		.word	.LC1
  84              		.cfi_endproc
  85              	.LFE38:
  86              		.size	BLE_Central_Observer_init, .-BLE_Central_Observer_init
  87              		.section	.rodata
  88 0021 000000   		.align	2
  89              	.LC8:
  90 0024 41747465 		.ascii	"Attempting Disconnection\015\000"
  90      6D707469 
  90      6E672044 
  90      6973636F 
  90      6E6E6563 
  91 003e 0000     		.align	2
  92              	.LC13:
  93 0040 54727969 		.ascii	"Trying to connect to previous device.\015\000"
  93      6E672074 
  93      6F20636F 
  93      6E6E6563 
  93      7420746F 
  94 0067 00       		.align	2
  95              	.LC16:
  96 0068 44697363 		.ascii	"Disconnect if another connection already exists\015"
  96      6F6E6E65 
  96      63742069 
  96      6620616E 
  96      6F746865 
  97 0098 00       		.ascii	"\000"
  98 0099 000000   		.align	2
  99              	.LC18:
 100 009c 4572726F 		.ascii	"Error. Cannot Disconnect a previous Connection \015"
 100      722E2043 
 100      616E6E6F 
 100      74204469 
 100      73636F6E 
 101 00cc 00       		.ascii	"\000"
 102 00cd 000000   		.align	2
 103              	.LC20:
 104 00d0 44697363 		.ascii	"Disconnecting Previous Connection and Trying to con"
 104      6F6E6E65 
 104      6374696E 
 104      67205072 
 104      6576696F 
 105 0103 6E656374 		.ascii	"nect to Device No %d \015\012\000"
 105      20746F20 
ARM GAS  C:\Users\run1009\AppData\Local\Temp\ccFHjhZC.s 			page 5


 105      44657669 
 105      6365204E 
 105      6F202564 
 106 011b 00       		.align	2
 107              	.LC22:
 108 011c 496E7661 		.ascii	"Invalid Input \015\000"
 108      6C696420 
 108      496E7075 
 108      74200D00 
 109              		.section	.text.main,"ax",%progbits
 110              		.align	2
 111              		.global	main
 112              		.code	16
 113              		.thumb_func
 114              		.type	main, %function
 115              	main:
 116              	.LFB39:
  99:main.c        **** 
 100:main.c        **** /*******************************************************************************
 101:main.c        **** * Function Name: main
 102:main.c        **** ********************************************************************************
 103:main.c        **** *
 104:main.c        **** * Summary:
 105:main.c        **** *  System entry and execution point for application
 106:main.c        **** *
 107:main.c        **** * Parameters:  
 108:main.c        **** *  None
 109:main.c        **** *
 110:main.c        **** * Return: 
 111:main.c        **** *  int
 112:main.c        **** 
 113:main.c        **** ********************************************************************************/
 114:main.c        **** 
 115:main.c        **** int main()
 116:main.c        **** {
 117              		.loc 1 116 0
 118              		.cfi_startproc
 119              		@ args = 0, pretend = 0, frame = 0
 120              		@ frame_needed = 1, uses_anonymous_args = 0
 121 0000 80B5     		push	{r7, lr}
 122              		.cfi_def_cfa_offset 8
 123              		.cfi_offset 7, -8
 124              		.cfi_offset 14, -4
 125 0002 00AF     		add	r7, sp, #0
 126              		.cfi_def_cfa_register 7
 117:main.c        ****     /* Initializing all the Flags and Indexes to 0 */
 118:main.c        ****     IsSelected = 0;
 127              		.loc 1 118 0
 128 0004 3D4B     		ldr	r3, .L14
 129 0006 0022     		movs	r2, #0
 130 0008 1A70     		strb	r2, [r3]
 119:main.c        ****     Periph_Selected = 0;
 131              		.loc 1 119 0
 132 000a 3D4B     		ldr	r3, .L14+4
 133 000c 0022     		movs	r2, #0
 134 000e 1A70     		strb	r2, [r3]
 120:main.c        ****     IsConnected = 0;
ARM GAS  C:\Users\run1009\AppData\Local\Temp\ccFHjhZC.s 			page 6


 135              		.loc 1 120 0
 136 0010 3C4B     		ldr	r3, .L14+8
 137 0012 0022     		movs	r2, #0
 138 0014 1A70     		strb	r2, [r3]
 121:main.c        ****     devIndex = 0;
 139              		.loc 1 121 0
 140 0016 3C4B     		ldr	r3, .L14+12
 141 0018 0022     		movs	r2, #0
 142 001a 1A70     		strb	r2, [r3]
 122:main.c        ****     
 123:main.c        ****     /* Initialize the system */
 124:main.c        **** 	BLE_Central_Observer_init();
 143              		.loc 1 124 0
 144 001c FFF7FEFF 		bl	BLE_Central_Observer_init
 145              	.L13:
 125:main.c        **** 	
 126:main.c        ****     /* Continuous loop scans for inputs from UART Terminal and accordingly 
 127:main.c        ****        handles conneciton, disconnection and scanning. Also processes
 128:main.c        ****         BLE events */
 129:main.c        ****     for(;;)
 130:main.c        ****     {
 131:main.c        **** 		//Checks the internal task queue in the BLE Stack
 132:main.c        **** 	    CyBle_ProcessEvents();
 146              		.loc 1 132 0
 147 0020 FFF7FEFF 		bl	CyBle_ProcessEvents
 133:main.c        ****         
 134:main.c        ****         if(UART_SpiUartGetRxBufferSize())
 148              		.loc 1 134 0
 149 0024 FFF7FEFF 		bl	UART_SpiUartGetRxBufferSize
 150 0028 031E     		subs	r3, r0, #0
 151 002a 63D0     		beq	.L5
 135:main.c        **** 		{
 136:main.c        ****             UartRxDataSim = UART_UartGetChar();
 152              		.loc 1 136 0
 153 002c FFF7FEFF 		bl	UART_UartGetChar
 154 0030 0200     		movs	r2, r0
 155 0032 364B     		ldr	r3, .L14+16
 156 0034 1A60     		str	r2, [r3]
 137:main.c        ****             // The user has to Enter D for disconnection  
 138:main.c        ****             if (UartRxDataSim == 'D' || UartRxDataSim == 'd')  // The user has to Enter D for disco
 157              		.loc 1 138 0
 158 0036 354B     		ldr	r3, .L14+16
 159 0038 1B68     		ldr	r3, [r3]
 160 003a 442B     		cmp	r3, #68
 161 003c 03D0     		beq	.L6
 162              		.loc 1 138 0 is_stmt 0 discriminator 1
 163 003e 334B     		ldr	r3, .L14+16
 164 0040 1B68     		ldr	r3, [r3]
 165 0042 642B     		cmp	r3, #100
 166 0044 0FD1     		bne	.L7
 167              	.L6:
 139:main.c        ****             {
 140:main.c        ****                 printf ("Attempting Disconnection\r\n");
 168              		.loc 1 140 0 is_stmt 1
 169 0046 324B     		ldr	r3, .L14+20
 170 0048 1800     		movs	r0, r3
 171 004a FFF7FEFF 		bl	puts
ARM GAS  C:\Users\run1009\AppData\Local\Temp\ccFHjhZC.s 			page 7


 141:main.c        ****                 CyBle_GapDisconnect(connHandle.bdHandle);
 172              		.loc 1 141 0
 173 004e 314B     		ldr	r3, .L14+24
 174 0050 1B78     		ldrb	r3, [r3]
 175 0052 1800     		movs	r0, r3
 176 0054 FFF7FEFF 		bl	CyBle_GapDisconnect
 142:main.c        ****                 IsConnected = 0;
 177              		.loc 1 142 0
 178 0058 2A4B     		ldr	r3, .L14+8
 179 005a 0022     		movs	r2, #0
 180 005c 1A70     		strb	r2, [r3]
 143:main.c        ****                 devIndex= 0;
 181              		.loc 1 143 0
 182 005e 2A4B     		ldr	r3, .L14+12
 183 0060 0022     		movs	r2, #0
 184 0062 1A70     		strb	r2, [r3]
 185 0064 46E0     		b	.L5
 186              	.L7:
 144:main.c        ****             }
 145:main.c        ****             
 146:main.c        ****             else
 147:main.c        ****             {
 148:main.c        ****                 // Check if a Valid Device index has been received
 149:main.c        ****                 if ((UartRxDataSim - '0' < devIndex) && (IsDetected))  
 187              		.loc 1 149 0
 188 0066 294B     		ldr	r3, .L14+16
 189 0068 1B68     		ldr	r3, [r3]
 190 006a 303B     		subs	r3, r3, #48
 191 006c 264A     		ldr	r2, .L14+12
 192 006e 1278     		ldrb	r2, [r2]
 193 0070 9342     		cmp	r3, r2
 194 0072 3BD2     		bcs	.L8
 195              		.loc 1 149 0 is_stmt 0 discriminator 1
 196 0074 284B     		ldr	r3, .L14+28
 197 0076 1B78     		ldrb	r3, [r3]
 198 0078 002B     		cmp	r3, #0
 199 007a 37D0     		beq	.L8
 150:main.c        ****                 {
 151:main.c        ****                     Periph_Selected = (uint8)(UartRxDataSim - '0');
 200              		.loc 1 151 0 is_stmt 1
 201 007c 234B     		ldr	r3, .L14+16
 202 007e 1B68     		ldr	r3, [r3]
 203 0080 DBB2     		uxtb	r3, r3
 204 0082 303B     		subs	r3, r3, #48
 205 0084 DAB2     		uxtb	r2, r3
 206 0086 1E4B     		ldr	r3, .L14+4
 207 0088 1A70     		strb	r2, [r3]
 152:main.c        ****                     IsSelected = 1;
 208              		.loc 1 152 0
 209 008a 1C4B     		ldr	r3, .L14
 210 008c 0122     		movs	r2, #1
 211 008e 1A70     		strb	r2, [r3]
 153:main.c        ****                     //Stop the scanning before connecting to the preferred peripheral
 154:main.c        ****                     if(CyBle_GetState() != CYBLE_STATE_CONNECTING)
 212              		.loc 1 154 0
 213 0090 224B     		ldr	r3, .L14+32
 214 0092 1B78     		ldrb	r3, [r3]
ARM GAS  C:\Users\run1009\AppData\Local\Temp\ccFHjhZC.s 			page 8


 215 0094 042B     		cmp	r3, #4
 216 0096 02D0     		beq	.L9
 155:main.c        ****                     CyBle_GapcStopScan();
 217              		.loc 1 155 0
 218 0098 FFF7FEFF 		bl	CyBle_GapcStopScan
 219 009c 03E0     		b	.L10
 220              	.L9:
 156:main.c        ****                     else
 157:main.c        ****                         printf("Trying to connect to previous device.\r\n");
 221              		.loc 1 157 0
 222 009e 204B     		ldr	r3, .L14+36
 223 00a0 1800     		movs	r0, r3
 224 00a2 FFF7FEFF 		bl	puts
 225              	.L10:
 158:main.c        ****                     
 159:main.c        ****                     if (IsConnected)
 226              		.loc 1 159 0
 227 00a6 174B     		ldr	r3, .L14+8
 228 00a8 1B78     		ldrb	r3, [r3]
 229 00aa 002B     		cmp	r3, #0
 230 00ac 22D0     		beq	.L5
 160:main.c        ****                     {
 161:main.c        ****                       // Disconnect if another connection already exists
 162:main.c        ****                         apiResult =    CyBle_GapDisconnect(connHandle.bdHandle); 
 231              		.loc 1 162 0
 232 00ae 194B     		ldr	r3, .L14+24
 233 00b0 1B78     		ldrb	r3, [r3]
 234 00b2 1800     		movs	r0, r3
 235 00b4 FFF7FEFF 		bl	CyBle_GapDisconnect
 236 00b8 0300     		movs	r3, r0
 237 00ba 1A00     		movs	r2, r3
 238 00bc 194B     		ldr	r3, .L14+40
 239 00be 1A80     		strh	r2, [r3]
 163:main.c        ****                         printf("Disconnect if another connection already exists\r\n");
 240              		.loc 1 163 0
 241 00c0 194B     		ldr	r3, .L14+44
 242 00c2 1800     		movs	r0, r3
 243 00c4 FFF7FEFF 		bl	puts
 164:main.c        ****                         if(CYBLE_ERROR_OK != apiResult )
 244              		.loc 1 164 0
 245 00c8 164B     		ldr	r3, .L14+40
 246 00ca 1B88     		ldrh	r3, [r3]
 247 00cc 002B     		cmp	r3, #0
 248 00ce 04D0     		beq	.L12
 165:main.c        ****     				    {
 166:main.c        ****     				       printf ("Error. Cannot Disconnect a previous Connection \r\n"); 
 249              		.loc 1 166 0
 250 00d0 164B     		ldr	r3, .L14+48
 251 00d2 1800     		movs	r0, r3
 252 00d4 FFF7FEFF 		bl	puts
 159:main.c        ****                     {
 253              		.loc 1 159 0
 254 00d8 0CE0     		b	.L5
 255              	.L12:
 167:main.c        ****                         }
 168:main.c        ****                         else
 169:main.c        ****                         {
ARM GAS  C:\Users\run1009\AppData\Local\Temp\ccFHjhZC.s 			page 9


 170:main.c        ****                             printf ("Disconnecting Previous Connection and Trying to connect to Dev
 256              		.loc 1 170 0
 257 00da 094B     		ldr	r3, .L14+4
 258 00dc 1B78     		ldrb	r3, [r3]
 259 00de 1A00     		movs	r2, r3
 260 00e0 134B     		ldr	r3, .L14+52
 261 00e2 1100     		movs	r1, r2
 262 00e4 1800     		movs	r0, r3
 263 00e6 FFF7FEFF 		bl	printf
 159:main.c        ****                     {
 264              		.loc 1 159 0
 265 00ea 03E0     		b	.L5
 266              	.L8:
 171:main.c        ****                         }
 172:main.c        ****                     } 
 173:main.c        ****                 }
 174:main.c        ****                 
 175:main.c        ****              else
 176:main.c        ****                 {
 177:main.c        ****                     printf ("Invalid Input \r\n");
 267              		.loc 1 177 0
 268 00ec 114B     		ldr	r3, .L14+56
 269 00ee 1800     		movs	r0, r3
 270 00f0 FFF7FEFF 		bl	puts
 271              	.L5:
 178:main.c        ****                 }
 179:main.c        ****             }
 180:main.c        **** 		}
 181:main.c        ****         //Function to handle connection and disconnecton
 182:main.c        **** 		Handle_ble_Central_Observer_State();
 272              		.loc 1 182 0
 273 00f4 FFF7FEFF 		bl	Handle_ble_Central_Observer_State
 183:main.c        ****     }
 274              		.loc 1 183 0
 275 00f8 92E7     		b	.L13
 276              	.L15:
 277 00fa C046     		.align	2
 278              	.L14:
 279 00fc 00000000 		.word	IsSelected
 280 0100 00000000 		.word	Periph_Selected
 281 0104 00000000 		.word	IsConnected
 282 0108 00000000 		.word	devIndex
 283 010c 00000000 		.word	UartRxDataSim
 284 0110 24000000 		.word	.LC8
 285 0114 00000000 		.word	connHandle
 286 0118 00000000 		.word	IsDetected
 287 011c 00000000 		.word	cyBle_state
 288 0120 40000000 		.word	.LC13
 289 0124 00000000 		.word	apiResult
 290 0128 68000000 		.word	.LC16
 291 012c 9C000000 		.word	.LC18
 292 0130 D0000000 		.word	.LC20
 293 0134 1C010000 		.word	.LC22
 294              		.cfi_endproc
 295              	.LFE39:
 296              		.size	main, .-main
 297              		.text
ARM GAS  C:\Users\run1009\AppData\Local\Temp\ccFHjhZC.s 			page 10


 298              	.Letext0:
 299              		.file 2 "Generated_Source\\PSoC4/cytypes.h"
 300              		.file 3 "Generated_Source\\PSoC4/BLE_Stack.h"
 301              		.file 4 "Generated_Source\\PSoC4/BLE_StackGatt.h"
 302              		.file 5 "Generated_Source\\PSoC4/BLE_eventHandler.h"